
DMM.elf:     file format elf32-avr

Sections:
Idx Name          Size      VMA       LMA       File off  Algn
  0 .data         00000142  00800100  00002522  000025b6  2**0
                  CONTENTS, ALLOC, LOAD, DATA
  1 .text         00002522  00000000  00000000  00000094  2**1
                  CONTENTS, ALLOC, LOAD, READONLY, CODE
  2 .bss          00000084  00800242  00800242  000026f8  2**0
                  ALLOC
  3 .debug_aranges 00000160  00000000  00000000  000026f8  2**0
                  CONTENTS, READONLY, DEBUGGING
  4 .debug_pubnames 000007ba  00000000  00000000  00002858  2**0
                  CONTENTS, READONLY, DEBUGGING
  5 .debug_info   00002eaf  00000000  00000000  00003012  2**0
                  CONTENTS, READONLY, DEBUGGING
  6 .debug_abbrev 0000131d  00000000  00000000  00005ec1  2**0
                  CONTENTS, READONLY, DEBUGGING
  7 .debug_line   00002001  00000000  00000000  000071de  2**0
                  CONTENTS, READONLY, DEBUGGING
  8 .debug_frame  000003a0  00000000  00000000  000091e0  2**2
                  CONTENTS, READONLY, DEBUGGING
  9 .debug_str    00000898  00000000  00000000  00009580  2**0
                  CONTENTS, READONLY, DEBUGGING
 10 .debug_loc    000011fd  00000000  00000000  00009e18  2**0
                  CONTENTS, READONLY, DEBUGGING
 11 .debug_ranges 00000050  00000000  00000000  0000b015  2**0
                  CONTENTS, READONLY, DEBUGGING

Disassembly of section .text:

00000000 <__vectors>:
       0:	0c 94 aa 01 	jmp	0x354	; 0x354 <__ctors_end>
       4:	0c 94 c7 01 	jmp	0x38e	; 0x38e <__bad_interrupt>
       8:	0c 94 c7 01 	jmp	0x38e	; 0x38e <__bad_interrupt>
       c:	0c 94 c7 01 	jmp	0x38e	; 0x38e <__bad_interrupt>
      10:	0c 94 c7 01 	jmp	0x38e	; 0x38e <__bad_interrupt>
      14:	0c 94 c7 01 	jmp	0x38e	; 0x38e <__bad_interrupt>
      18:	0c 94 c7 01 	jmp	0x38e	; 0x38e <__bad_interrupt>
      1c:	0c 94 c7 01 	jmp	0x38e	; 0x38e <__bad_interrupt>
      20:	0c 94 c7 01 	jmp	0x38e	; 0x38e <__bad_interrupt>
      24:	0c 94 c7 01 	jmp	0x38e	; 0x38e <__bad_interrupt>
      28:	0c 94 c7 01 	jmp	0x38e	; 0x38e <__bad_interrupt>
      2c:	0c 94 c7 01 	jmp	0x38e	; 0x38e <__bad_interrupt>
      30:	0c 94 c9 01 	jmp	0x392	; 0x392 <__vector_12>
      34:	0c 94 c7 01 	jmp	0x38e	; 0x38e <__bad_interrupt>
      38:	0c 94 c7 01 	jmp	0x38e	; 0x38e <__bad_interrupt>
      3c:	0c 94 1c 02 	jmp	0x438	; 0x438 <__vector_15>
      40:	0c 94 2e 04 	jmp	0x85c	; 0x85c <__vector_16>
      44:	0c 94 c7 01 	jmp	0x38e	; 0x38e <__bad_interrupt>
      48:	0c 94 c7 01 	jmp	0x38e	; 0x38e <__bad_interrupt>
      4c:	0c 94 c7 01 	jmp	0x38e	; 0x38e <__bad_interrupt>
      50:	0c 94 c7 01 	jmp	0x38e	; 0x38e <__bad_interrupt>
      54:	0c 94 c7 01 	jmp	0x38e	; 0x38e <__bad_interrupt>
      58:	0c 94 c7 01 	jmp	0x38e	; 0x38e <__bad_interrupt>
      5c:	0c 94 c7 01 	jmp	0x38e	; 0x38e <__bad_interrupt>
      60:	0c 94 c7 01 	jmp	0x38e	; 0x38e <__bad_interrupt>
      64:	0c 94 c7 01 	jmp	0x38e	; 0x38e <__bad_interrupt>
      68:	0c 94 c7 01 	jmp	0x38e	; 0x38e <__bad_interrupt>
      6c:	0c 94 c7 01 	jmp	0x38e	; 0x38e <__bad_interrupt>

00000070 <LCDBlank>:
      70:	20 20 20 20 20 20 20 20 20 20 20 20 20 20 20 20                     
	...

00000082 <LCDHelloTop>:
      82:	44 4d 4d 20 4d 41 53 54 45 52 20 76 39 30 30 31     DMM MASTER v9001
	...

00000094 <LCDHelloBot>:
      94:	50 52 45 53 53 20 23 20 46 4f 52 20 48 45 4c 50     PRESS # FOR HELP
	...

000000a6 <LCDRange>:
      a6:	52 41 4e 47 45 3a 20 00 00                          RANGE: ..

000000af <LCDAutorangeOn>:
      af:	41 55 54 4f 52 41 4e 47 45 3a 20 4f 4e 00 00        AUTORANGE: ON..

000000be <LCD5Volts>:
      be:	35 20 56 4f 4c 54 53 00 00                          5 VOLTS..

000000c7 <LCD256Volts>:
      c7:	32 2e 35 36 20 56 4f 4c 54 53 00 00                 2.56 VOLTS..

000000d3 <LCD11Volts>:
      d3:	31 2e 31 20 56 4f 4c 54 53 00 00                    1.1 VOLTS..

000000de <LCD1kOhm>:
      de:	31 20 6b 4f 48 4d 00 00                             1 kOHM..

000000e6 <LCD10kOhm>:
      e6:	31 30 20 6b 4f 48 4d 00 00                          10 kOHM..

000000ef <LCD100kOhm>:
      ef:	31 30 30 20 6b 4f 48 4d 00 00                       100 kOHM..

000000f9 <LCD1kHz>:
      f9:	31 20 6b 48 5a 00 00                                1 kHZ..

00000100 <LCD10kHz>:
     100:	31 30 20 6b 48 5a 00 00                             10 kHZ..

00000108 <LCDMode>:
     108:	4d 4f 44 45 3a 20 00 00                             MODE: ..

00000110 <LCDVolt>:
     110:	56 4f 4c 54 4d 45 54 45 52 20 00 00                 VOLTMETER ..

0000011c <LCDOhm>:
     11c:	4f 48 4d 4d 45 54 45 52 00 00                       OHMMETER..

00000126 <LCDFreq>:
     126:	46 52 45 51 55 45 4e 43 59 00 00                    FREQUENCY..

00000131 <LCDManWelcomeTop>:
     131:	48 45 4c 50 20 4d 45 4e 55 00 00                    HELP MENU..

0000013c <LCDManWelcomeBot>:
     13c:	50 52 45 53 53 20 41 4e 59 20 4b 45 59 00 00        PRESS ANY KEY..

0000014b <LCDNavigation1Top>:
     14b:	50 52 45 53 53 20 23 20 46 4f 52 20 4e 45 58 54     PRESS # FOR NEXT
	...

0000015d <LCDNavigation1Bot>:
     15d:	50 52 45 53 53 20 2a 20 46 4f 52 20 50 52 45 56     PRESS * FOR PREV
	...

0000016f <LCDNavigation2Top>:
     16f:	50 52 45 53 53 20 30 20 54 4f 20 45 58 49 54 00     PRESS 0 TO EXIT.
	...

00000180 <LCDNavigation2Bot>:
     180:	54 48 45 20 48 45 4c 50 20 4d 45 4e 55 00 00        THE HELP MENU..

0000018f <LCDVoltManTop>:
     18f:	41 20 46 4f 52 20 56 4f 4c 54 4d 45 54 45 52 00     A FOR VOLTMETER.
	...

000001a0 <LCDVoltManBot>:
     1a0:	56 4f 4c 54 4d 45 54 45 52 00 00                    VOLTMETER..

000001ab <LCDOhmManTop>:
     1ab:	42 20 46 4f 52 20 4f 48 4d 4d 45 54 45 52 00 00     B FOR OHMMETER..

000001bb <LCDOhmManBot>:
     1bb:	4f 48 4d 4d 45 54 45 52 00 00                       OHMMETER..

000001c5 <LCDFreqManTop>:
     1c5:	43 20 46 4f 52 20 46 52 45 51 55 45 4e 43 59 00     C FOR FREQUENCY.
	...

000001d6 <LCDFreqManBot>:
     1d6:	46 52 45 51 55 45 4e 43 49 45 53 00 00              FREQUENCIES..

000001e3 <LCDAutorangeMan1Top>:
     1e3:	44 20 54 4f 20 54 4f 47 47 4c 45 00 00              D TO TOGGLE..

000001f0 <LCDAutorangeMan1Bot>:
     1f0:	41 55 54 4f 52 41 4e 47 45 00 00                    AUTORANGE..

000001fb <LCDAutorangeMan2Top>:
     1fb:	31 20 54 4f 20 53 57 49 54 43 48 00 00              1 TO SWITCH..

00000208 <LCDAutorangeMan2Bot>:
     208:	41 55 54 4f 52 41 4e 47 45 20 56 41 4c 55 45 00     AUTORANGE VALUE.
	...

00000219 <LcdCustomChar>:
     219:	00 1f 00 00 00 00 1f 00 00 1f 10 10 10 10 1f 00     ................
     229:	00 1f 18 18 18 18 1f 00 00 1f 1c 1c 1c 1c 1f 00     ................
     239:	00 1f 1e 1e 1e 1e 1f 00 00 1f 1f 1f 1f 1f 1f 00     ................
     249:	03 07 0f 1f 0f 07 03 00 18 1c 1e 1f 1e 1c 18 00     ................
     259:	00 40 7a 10 f3 5a 00 a0 72 4e 18 09 00 10 a5 d4     .@z..Z..rN......
     269:	e8 00 00 e8 76 48 17 00 00 e4 0b 54 02 00 00 ca     ....vH.....T....
     279:	9a 3b 00 00 00 e1 f5 05 00 00 80 96 98 00 00 00     .;..............
     289:	40 42 0f 00 00 00 a0 86 01 00 00 00 10 27 00 00     @B...........'..
     299:	00 00 e8 03 00 00 00 00 64 00 00 00 00 00 0a 00     ........d.......
     2a9:	00 00 00 00 01 00 00 00 00 00 2c 76 d8 88 dc 67     ..........,v...g
     2b9:	4f 08 23 df c1 df ae 59 e1 b1 b7 96 e5 e3 e4 53     O.#....Y.......S
     2c9:	c6 3a e6 51 99 76 96 e8 e6 c2 84 26 eb 89 8c 9b     .:.Q.v.....&....
     2d9:	62 ed 40 7c 6f fc ef bc 9c 9f 40 f2 ba a5 6f a5     b.@|o.....@...o.
     2e9:	f4 90 05 5a 2a f7 5c 93 6b 6c f9 67 6d c1 1b fc     ...Z*.\.kl.gm...
     2f9:	e0 e4 0d 47 fe f5 20 e6 b5 00 d0 ed 90 2e 03 00     ...G.. .........
     309:	94 35 77 05 00 80 84 1e 08 00 00 20 4e 0a 00 00     .5w........ N...
     319:	00 c8 0c 33 33 33 33 0f 98 6e 12 83 11 41 ef 8d     ...3333..n...A..
     329:	21 14 89 3b e6 55 16 cf fe e6 db 18 d1 84 4b 38     !..;.U........K8
     339:	1b f7 7c 1d 90 1d a4 bb e4 24 20 32 84 72 5e 22     ..|......$ 2.r^"
     349:	81 00 c9 f1 24 ec a1 e5 3d 27 00                    ....$...='.

00000354 <__ctors_end>:
     354:	11 24       	eor	r1, r1
     356:	1f be       	out	0x3f, r1	; 63
     358:	cf ef       	ldi	r28, 0xFF	; 255
     35a:	d0 e1       	ldi	r29, 0x10	; 16
     35c:	de bf       	out	0x3e, r29	; 62
     35e:	cd bf       	out	0x3d, r28	; 61

00000360 <__do_copy_data>:
     360:	12 e0       	ldi	r17, 0x02	; 2
     362:	a0 e0       	ldi	r26, 0x00	; 0
     364:	b1 e0       	ldi	r27, 0x01	; 1
     366:	e2 e2       	ldi	r30, 0x22	; 34
     368:	f5 e2       	ldi	r31, 0x25	; 37
     36a:	02 c0       	rjmp	.+4      	; 0x370 <.do_copy_data_start>

0000036c <.do_copy_data_loop>:
     36c:	05 90       	lpm	r0, Z+
     36e:	0d 92       	st	X+, r0

00000370 <.do_copy_data_start>:
     370:	a2 34       	cpi	r26, 0x42	; 66
     372:	b1 07       	cpc	r27, r17
     374:	d9 f7       	brne	.-10     	; 0x36c <.do_copy_data_loop>

00000376 <__do_clear_bss>:
     376:	12 e0       	ldi	r17, 0x02	; 2
     378:	a2 e4       	ldi	r26, 0x42	; 66
     37a:	b2 e0       	ldi	r27, 0x02	; 2
     37c:	01 c0       	rjmp	.+2      	; 0x380 <.do_clear_bss_start>

0000037e <.do_clear_bss_loop>:
     37e:	1d 92       	st	X+, r1

00000380 <.do_clear_bss_start>:
     380:	a6 3c       	cpi	r26, 0xC6	; 198
     382:	b1 07       	cpc	r27, r17
     384:	e1 f7       	brne	.-8      	; 0x37e <.do_clear_bss_loop>
     386:	0e 94 48 06 	call	0xc90	; 0xc90 <main>
     38a:	0c 94 8f 12 	jmp	0x251e	; 0x251e <_exit>

0000038e <__bad_interrupt>:
     38e:	0c 94 00 00 	jmp	0	; 0x0 <__vectors>

00000392 <__vector_12>:
	if((elapsedTime % 200) == 0) {
		triggerPoll = 1;
	}
}

ISR (TIMER1_CAPT_vect){
     392:	1f 92       	push	r1
     394:	0f 92       	push	r0
     396:	0f b6       	in	r0, 0x3f	; 63
     398:	0f 92       	push	r0
     39a:	11 24       	eor	r1, r1
     39c:	6f 93       	push	r22
     39e:	7f 93       	push	r23
     3a0:	8f 93       	push	r24
     3a2:	9f 93       	push	r25
     3a4:	ef 93       	push	r30
     3a6:	ff 93       	push	r31
	//read the timer1 capture register
	T1Capture = ICR1;
     3a8:	80 91 86 00 	lds	r24, 0x0086
     3ac:	90 91 87 00 	lds	r25, 0x0087
     3b0:	80 93 99 02 	sts	0x0299, r24
	
	//period is the difference between this capture and the previous one
	period = T1Capture - lastT1Capture;
     3b4:	80 91 99 02 	lds	r24, 0x0299
     3b8:	90 91 a5 02 	lds	r25, 0x02A5
     3bc:	89 1b       	sub	r24, r25
     3be:	80 93 b8 02 	sts	0x02B8, r24
	lastT1Capture = T1Capture;
     3c2:	80 91 99 02 	lds	r24, 0x0299
     3c6:	80 93 a5 02 	sts	0x02A5, r24

	//if the period is too small, change the prescalar
	if (period < 100){
     3ca:	80 91 b8 02 	lds	r24, 0x02B8
     3ce:	84 36       	cpi	r24, 0x64	; 100
     3d0:	40 f5       	brcc	.+80     	; 0x422 <__vector_12+0x90>
		rangeIdx--;
     3d2:	80 91 bb 02 	lds	r24, 0x02BB
     3d6:	81 50       	subi	r24, 0x01	; 1
     3d8:	80 93 bb 02 	sts	0x02BB, r24
		rangeIdx = rangeIdx % rangeIdxMod;
     3dc:	80 91 bb 02 	lds	r24, 0x02BB
     3e0:	60 91 94 02 	lds	r22, 0x0294
     3e4:	0e 94 9a 0f 	call	0x1f34	; 0x1f34 <__udivmodqi4>
     3e8:	90 93 bb 02 	sts	0x02BB, r25
		frequencyRef = frequencyRanges[rangeIdx];
     3ec:	e0 91 bb 02 	lds	r30, 0x02BB
     3f0:	f0 e0       	ldi	r31, 0x00	; 0
     3f2:	e1 5f       	subi	r30, 0xF1	; 241
     3f4:	fe 4f       	sbci	r31, 0xFE	; 254
     3f6:	80 81       	ld	r24, Z
     3f8:	80 93 bf 02 	sts	0x02BF, r24
		
		//Set up the TIMERA prescalar
		TCCR1B &= ~0x07;
     3fc:	80 91 81 00 	lds	r24, 0x0081
     400:	88 7f       	andi	r24, 0xF8	; 248
     402:	80 93 81 00 	sts	0x0081, r24
		TCCR1B |= TIMERAprescalars[rangeIdx];
     406:	90 91 81 00 	lds	r25, 0x0081
     40a:	e0 91 bb 02 	lds	r30, 0x02BB
     40e:	f0 e0       	ldi	r31, 0x00	; 0
     410:	ef 5e       	subi	r30, 0xEF	; 239
     412:	fe 4f       	sbci	r31, 0xFE	; 254
     414:	80 81       	ld	r24, Z
     416:	98 2b       	or	r25, r24
     418:	90 93 81 00 	sts	0x0081, r25
		justSwitched = 1;
     41c:	81 e0       	ldi	r24, 0x01	; 1
     41e:	80 93 be 02 	sts	0x02BE, r24
	}
}
     422:	ff 91       	pop	r31
     424:	ef 91       	pop	r30
     426:	9f 91       	pop	r25
     428:	8f 91       	pop	r24
     42a:	7f 91       	pop	r23
     42c:	6f 91       	pop	r22
     42e:	0f 90       	pop	r0
     430:	0f be       	out	0x3f, r0	; 63
     432:	0f 90       	pop	r0
     434:	1f 90       	pop	r1
     436:	18 95       	reti

00000438 <__vector_15>:

ISR (TIMER1_OVF_vect){
     438:	1f 92       	push	r1
     43a:	0f 92       	push	r0
     43c:	0f b6       	in	r0, 0x3f	; 63
     43e:	0f 92       	push	r0
     440:	11 24       	eor	r1, r1
     442:	6f 93       	push	r22
     444:	7f 93       	push	r23
     446:	8f 93       	push	r24
     448:	9f 93       	push	r25
     44a:	af 93       	push	r26
     44c:	bf 93       	push	r27
     44e:	ef 93       	push	r30
     450:	ff 93       	push	r31
	//the clock is running too fast, slow down the frequency
	rangeIdx++;
     452:	80 91 bb 02 	lds	r24, 0x02BB
     456:	8f 5f       	subi	r24, 0xFF	; 255
     458:	80 93 bb 02 	sts	0x02BB, r24
	rangeIdx = rangeIdx % rangeIdxMod;
     45c:	80 91 bb 02 	lds	r24, 0x02BB
     460:	60 91 94 02 	lds	r22, 0x0294
     464:	0e 94 9a 0f 	call	0x1f34	; 0x1f34 <__udivmodqi4>
     468:	90 93 bb 02 	sts	0x02BB, r25
	frequencyRef = frequencyRanges[rangeIdx];
     46c:	80 91 bb 02 	lds	r24, 0x02BB
     470:	ef e0       	ldi	r30, 0x0F	; 15
     472:	f1 e0       	ldi	r31, 0x01	; 1
     474:	e8 0f       	add	r30, r24
     476:	f1 1d       	adc	r31, r1
     478:	80 81       	ld	r24, Z
     47a:	80 93 bf 02 	sts	0x02BF, r24
	
	//Set up the TIMERA prescalar
	TCCR1B &= ~0x07;
     47e:	a1 e8       	ldi	r26, 0x81	; 129
     480:	b0 e0       	ldi	r27, 0x00	; 0
     482:	8c 91       	ld	r24, X
     484:	88 7f       	andi	r24, 0xF8	; 248
     486:	8c 93       	st	X, r24
	TCCR1B |= TIMERAprescalars[rangeIdx];
     488:	9c 91       	ld	r25, X
     48a:	80 91 bb 02 	lds	r24, 0x02BB
     48e:	e1 e1       	ldi	r30, 0x11	; 17
     490:	f1 e0       	ldi	r31, 0x01	; 1
     492:	e8 0f       	add	r30, r24
     494:	f1 1d       	adc	r31, r1
     496:	80 81       	ld	r24, Z
     498:	98 2b       	or	r25, r24
     49a:	9c 93       	st	X, r25
	justSwitched = 1;	
     49c:	81 e0       	ldi	r24, 0x01	; 1
     49e:	80 93 be 02 	sts	0x02BE, r24
}
     4a2:	ff 91       	pop	r31
     4a4:	ef 91       	pop	r30
     4a6:	bf 91       	pop	r27
     4a8:	af 91       	pop	r26
     4aa:	9f 91       	pop	r25
     4ac:	8f 91       	pop	r24
     4ae:	7f 91       	pop	r23
     4b0:	6f 91       	pop	r22
     4b2:	0f 90       	pop	r0
     4b4:	0f be       	out	0x3f, r0	; 63
     4b6:	0f 90       	pop	r0
     4b8:	1f 90       	pop	r1
     4ba:	18 95       	reti

000004bc <ScanKeypad>:
//HELPER FUNCTIONS*************************************************************
uint8_t ScanKeypad(void){
	uint8_t key;
	uint8_t butnum;
//get lower nibble
	DDRD = 0x0f;
     4bc:	2f e0       	ldi	r18, 0x0F	; 15
     4be:	2a b9       	out	0x0a, r18	; 10
	PORTD = 0xf0; 
     4c0:	80 ef       	ldi	r24, 0xF0	; 240
     4c2:	8b b9       	out	0x0b, r24	; 11
    can be achieved.
*/
void
_delay_loop_1(uint8_t __count)
{
	__asm__ volatile (
     4c4:	91 e0       	ldi	r25, 0x01	; 1
     4c6:	39 2f       	mov	r19, r25
     4c8:	3a 95       	dec	r19
     4ca:	f1 f7       	brne	.-4      	; 0x4c8 <ScanKeypad+0xc>
	_delay_us(5);
	key = PIND;
     4cc:	39 b1       	in	r19, 0x09	; 9
	
	//get upper nibble
	DDRD = 0xf0;
     4ce:	8a b9       	out	0x0a, r24	; 10
	PORTD = 0x0f; 
     4d0:	2b b9       	out	0x0b, r18	; 11
     4d2:	9a 95       	dec	r25
     4d4:	f1 f7       	brne	.-4      	; 0x4d2 <ScanKeypad+0x16>
	_delay_us(5);
	key = key | PIND;
     4d6:	29 b1       	in	r18, 0x09	; 9
     4d8:	23 2b       	or	r18, r19
	
	//find matching keycode in keytbl
	if (key != 0xff)
     4da:	2f 3f       	cpi	r18, 0xFF	; 255
     4dc:	61 f0       	breq	.+24     	; 0x4f6 <ScanKeypad+0x3a>
     4de:	e1 e2       	ldi	r30, 0x21	; 33
     4e0:	f1 e0       	ldi	r31, 0x01	; 1
     4e2:	90 e0       	ldi	r25, 0x00	; 0
	begin
		for (butnum=0; butnum<MAX_KEYS; butnum++)
		begin   
		if (keytbl[butnum]==key)  break;   
     4e4:	80 81       	ld	r24, Z
     4e6:	9f 5f       	subi	r25, 0xFF	; 255
     4e8:	82 17       	cp	r24, r18
     4ea:	11 f4       	brne	.+4      	; 0x4f0 <ScanKeypad+0x34>
		end

		if (butnum==MAX_KEYS) butnum=0;
		else butnum++;	   //adjust by one to make range 1-16
     4ec:	89 2f       	mov	r24, r25
     4ee:	08 95       	ret
	key = key | PIND;
	
	//find matching keycode in keytbl
	if (key != 0xff)
	begin
		for (butnum=0; butnum<MAX_KEYS; butnum++)
     4f0:	31 96       	adiw	r30, 0x01	; 1
     4f2:	90 31       	cpi	r25, 0x10	; 16
     4f4:	b9 f7       	brne	.-18     	; 0x4e4 <ScanKeypad+0x28>
     4f6:	80 e0       	ldi	r24, 0x00	; 0
		else butnum++;	   //adjust by one to make range 1-16
	end
	else butnum=0;
	
	return butnum;
}
     4f8:	08 95       	ret

000004fa <Debounce>:

//Debounce the button using a debounce state machine
void Debounce(void){
	uint8_t key = ScanKeypad(); //Scan the keypad
     4fa:	0e 94 5e 02 	call	0x4bc	; 0x4bc <ScanKeypad>
     4fe:	28 2f       	mov	r18, r24
	switch(keyState){
     500:	90 91 9a 02 	lds	r25, 0x029A
     504:	91 30       	cpi	r25, 0x01	; 1
     506:	79 f0       	breq	.+30     	; 0x526 <Debounce+0x2c>
     508:	91 30       	cpi	r25, 0x01	; 1
     50a:	20 f0       	brcs	.+8      	; 0x514 <Debounce+0x1a>
     50c:	92 30       	cpi	r25, 0x02	; 2
     50e:	09 f0       	breq	.+2      	; 0x512 <Debounce+0x18>
     510:	59 c0       	rjmp	.+178    	; 0x5c4 <Debounce+0xca>
     512:	2f c0       	rjmp	.+94     	; 0x572 <Debounce+0x78>
	
	//in the RELEASED state: stay in this state if a key is not pressed
	//go to UNKNOWN if any key is pressed and reset the debounce countdown.
	case RELEASED:
		if (key){
     514:	88 23       	and	r24, r24
     516:	09 f4       	brne	.+2      	; 0x51a <Debounce+0x20>
     518:	55 c0       	rjmp	.+170    	; 0x5c4 <Debounce+0xca>
			keyState = UNKNOWN;
     51a:	81 e0       	ldi	r24, 0x01	; 1
     51c:	80 93 9a 02 	sts	0x029A, r24
			prevKeyState = RELEASED;
     520:	10 92 a6 02 	sts	0x02A6, r1
     524:	0c c0       	rjmp	.+24     	; 0x53e <Debounce+0x44>

	//in the UNKNOWN state: go to released if the button is not down Update
	//pressedAndReleased if the button was previously pressed.
	//go to PUSHED if the button is down
	case UNKNOWN:
		if (key){
     526:	88 23       	and	r24, r24
     528:	b1 f0       	breq	.+44     	; 0x556 <Debounce+0x5c>
			if (key == checkKey){
     52a:	80 91 b9 02 	lds	r24, 0x02B9
     52e:	28 17       	cp	r18, r24
     530:	31 f4       	brne	.+12     	; 0x53e <Debounce+0x44>
				keyState = PUSHED;
     532:	82 e0       	ldi	r24, 0x02	; 2
     534:	80 93 9a 02 	sts	0x029A, r24
				prevKeyState = UNKNOWN;
     538:	90 93 a6 02 	sts	0x02A6, r25
     53c:	08 95       	ret
			}
			else {
				debounceTime = elapsedTime + DEBOUNCE_TIME;
     53e:	80 91 95 02 	lds	r24, 0x0295
     542:	90 91 96 02 	lds	r25, 0x0296
     546:	4e 96       	adiw	r24, 0x1e	; 30
     548:	90 93 b7 02 	sts	0x02B7, r25
     54c:	80 93 b6 02 	sts	0x02B6, r24
				checkKey = key;
     550:	20 93 b9 02 	sts	0x02B9, r18
     554:	08 95       	ret
			}
		}
		else{
			keyState = RELEASED;
     556:	10 92 9a 02 	sts	0x029A, r1
			if (prevKeyState == PUSHED) {
     55a:	80 91 a6 02 	lds	r24, 0x02A6
     55e:	82 30       	cpi	r24, 0x02	; 2
     560:	21 f4       	brne	.+8      	; 0x56a <Debounce+0x70>
				curKey = checkKey; //The key to be checked has been pressed and debounced
     562:	80 91 b9 02 	lds	r24, 0x02B9
     566:	80 93 b5 02 	sts	0x02B5, r24
			}
			prevKeyState = UNKNOWN;
     56a:	81 e0       	ldi	r24, 0x01	; 1
     56c:	80 93 a6 02 	sts	0x02A6, r24
     570:	08 95       	ret
		break;

	//in the PUSHED state go to UnKnown if the button is not down.
	//stay in PUSHED if the button is down
	case PUSHED:
		if (!key){
     572:	88 23       	and	r24, r24
     574:	79 f4       	brne	.+30     	; 0x594 <Debounce+0x9a>
			keyState = UNKNOWN;
     576:	81 e0       	ldi	r24, 0x01	; 1
     578:	80 93 9a 02 	sts	0x029A, r24
			prevKeyState = PUSHED;
     57c:	90 93 a6 02 	sts	0x02A6, r25
			debounceTime = elapsedTime + DEBOUNCE_TIME;
     580:	80 91 95 02 	lds	r24, 0x0295
     584:	90 91 96 02 	lds	r25, 0x0296
     588:	4e 96       	adiw	r24, 0x1e	; 30
     58a:	90 93 b7 02 	sts	0x02B7, r25
     58e:	80 93 b6 02 	sts	0x02B6, r24
     592:	08 95       	ret
		}
		else if (key != checkKey){
     594:	80 91 b9 02 	lds	r24, 0x02B9
     598:	28 17       	cp	r18, r24
     59a:	a1 f0       	breq	.+40     	; 0x5c4 <Debounce+0xca>
			keyState = UNKNOWN;
     59c:	81 e0       	ldi	r24, 0x01	; 1
     59e:	80 93 9a 02 	sts	0x029A, r24
			prevKeyState = RELEASED; //...???
     5a2:	10 92 a6 02 	sts	0x02A6, r1
			debounceTime = elapsedTime + DEBOUNCE_TIME;
     5a6:	80 91 95 02 	lds	r24, 0x0295
     5aa:	90 91 96 02 	lds	r25, 0x0296
     5ae:	4e 96       	adiw	r24, 0x1e	; 30
     5b0:	90 93 b7 02 	sts	0x02B7, r25
     5b4:	80 93 b6 02 	sts	0x02B6, r24
			curKey = checkKey;
     5b8:	80 91 b9 02 	lds	r24, 0x02B9
     5bc:	80 93 b5 02 	sts	0x02B5, r24
			checkKey = key;
     5c0:	20 93 b9 02 	sts	0x02B9, r18
     5c4:	08 95       	ret

000005c6 <getCurKey>:
	PORTB = 0xFF;
	sei();
}

uint8_t getCurKey(void){
	uint8_t tmpKey = curKey;
     5c6:	90 91 b5 02 	lds	r25, 0x02B5
	if (curKey){
     5ca:	80 91 b5 02 	lds	r24, 0x02B5
     5ce:	88 23       	and	r24, r24
     5d0:	11 f0       	breq	.+4      	; 0x5d6 <getCurKey+0x10>
		curKey = 0;
     5d2:	10 92 b5 02 	sts	0x02B5, r1
	}
	return tmpKey;
}
     5d6:	89 2f       	mov	r24, r25
     5d8:	08 95       	ret

000005da <UpdateManState>:
	}
}

//Update the manual based on button presses
void UpdateManState(uint8_t key){
	switch (manPage){
     5da:	90 91 bd 02 	lds	r25, 0x02BD
     5de:	93 30       	cpi	r25, 0x03	; 3
     5e0:	c1 f1       	breq	.+112    	; 0x652 <UpdateManState+0x78>
     5e2:	94 30       	cpi	r25, 0x04	; 4
     5e4:	28 f4       	brcc	.+10     	; 0x5f0 <UpdateManState+0x16>
     5e6:	91 30       	cpi	r25, 0x01	; 1
     5e8:	99 f0       	breq	.+38     	; 0x610 <UpdateManState+0x36>
     5ea:	92 30       	cpi	r25, 0x02	; 2
     5ec:	30 f5       	brcc	.+76     	; 0x63a <UpdateManState+0x60>
     5ee:	0c c0       	rjmp	.+24     	; 0x608 <UpdateManState+0x2e>
     5f0:	95 30       	cpi	r25, 0x05	; 5
     5f2:	09 f4       	brne	.+2      	; 0x5f6 <UpdateManState+0x1c>
     5f4:	40 c0       	rjmp	.+128    	; 0x676 <UpdateManState+0x9c>
     5f6:	95 30       	cpi	r25, 0x05	; 5
     5f8:	a8 f1       	brcs	.+106    	; 0x664 <UpdateManState+0x8a>
     5fa:	96 30       	cpi	r25, 0x06	; 6
     5fc:	09 f4       	brne	.+2      	; 0x600 <UpdateManState+0x26>
     5fe:	44 c0       	rjmp	.+136    	; 0x688 <UpdateManState+0xae>
     600:	97 30       	cpi	r25, 0x07	; 7
     602:	09 f0       	breq	.+2      	; 0x606 <UpdateManState+0x2c>
     604:	68 c0       	rjmp	.+208    	; 0x6d6 <UpdateManState+0xfc>
     606:	4a c0       	rjmp	.+148    	; 0x69c <UpdateManState+0xc2>
		case WELCOME:
			if (key){
     608:	88 23       	and	r24, r24
     60a:	09 f4       	brne	.+2      	; 0x60e <UpdateManState+0x34>
     60c:	64 c0       	rjmp	.+200    	; 0x6d6 <UpdateManState+0xfc>
     60e:	19 c0       	rjmp	.+50     	; 0x642 <UpdateManState+0x68>
				manPage = NAVIGATION_1;
				justSwitched = 1;
			}
			break;
		case NAVIGATION_1:
			if (key == 0x10){
     610:	80 31       	cpi	r24, 0x10	; 16
     612:	29 f4       	brne	.+10     	; 0x61e <UpdateManState+0x44>
				mode = returnMode;
     614:	80 91 ba 02 	lds	r24, 0x02BA
     618:	80 93 a4 02 	sts	0x02A4, r24
     61c:	02 c0       	rjmp	.+4      	; 0x622 <UpdateManState+0x48>
				manPage = WELCOME;
				justSwitched = 1;
			}
			else if (key == 0x0E){
     61e:	8e 30       	cpi	r24, 0x0E	; 14
     620:	19 f4       	brne	.+6      	; 0x628 <UpdateManState+0x4e>
				manPage = WELCOME;
     622:	10 92 bd 02 	sts	0x02BD, r1
     626:	06 c0       	rjmp	.+12     	; 0x634 <UpdateManState+0x5a>
				justSwitched = 1;
			}
			else if (key == 0x0F){
     628:	8f 30       	cpi	r24, 0x0F	; 15
     62a:	09 f0       	breq	.+2      	; 0x62e <UpdateManState+0x54>
     62c:	54 c0       	rjmp	.+168    	; 0x6d6 <UpdateManState+0xfc>
				manPage = NAVIGATION_2;
     62e:	82 e0       	ldi	r24, 0x02	; 2
     630:	80 93 bd 02 	sts	0x02BD, r24
				justSwitched = 1;
     634:	90 93 be 02 	sts	0x02BE, r25
     638:	08 95       	ret
			}
			break;
		case NAVIGATION_2:
			if (key == 0x10){
     63a:	80 31       	cpi	r24, 0x10	; 16
     63c:	89 f1       	breq	.+98     	; 0x6a0 <UpdateManState+0xc6>
				mode = returnMode;
				manPage = WELCOME;
				justSwitched = 1;
			}
			else if (key == 0x0E){
     63e:	8e 30       	cpi	r24, 0x0E	; 14
     640:	21 f4       	brne	.+8      	; 0x64a <UpdateManState+0x70>
				manPage = NAVIGATION_1;
     642:	81 e0       	ldi	r24, 0x01	; 1
     644:	80 93 bd 02 	sts	0x02BD, r24
     648:	38 c0       	rjmp	.+112    	; 0x6ba <UpdateManState+0xe0>
				justSwitched = 1;
			}
			else if (key == 0x0F){
     64a:	8f 30       	cpi	r24, 0x0F	; 15
     64c:	09 f0       	breq	.+2      	; 0x650 <UpdateManState+0x76>
     64e:	43 c0       	rjmp	.+134    	; 0x6d6 <UpdateManState+0xfc>
     650:	0d c0       	rjmp	.+26     	; 0x66c <UpdateManState+0x92>
				manPage = VOLT_MAN;
				justSwitched = 1;
			}
			break;
	 	case VOLT_MAN:
			if (key == 0x10){
     652:	80 31       	cpi	r24, 0x10	; 16
     654:	29 f1       	breq	.+74     	; 0x6a0 <UpdateManState+0xc6>
				mode = returnMode;
				manPage = WELCOME;
				justSwitched = 1;
			}
			else if (key == 0x0E){
     656:	8e 30       	cpi	r24, 0x0E	; 14
     658:	11 f4       	brne	.+4      	; 0x65e <UpdateManState+0x84>
				manPage = NAVIGATION_2;
     65a:	82 e0       	ldi	r24, 0x02	; 2
     65c:	2b c0       	rjmp	.+86     	; 0x6b4 <UpdateManState+0xda>
				justSwitched = 1;
			}
			else if (key == 0x0F){
     65e:	8f 30       	cpi	r24, 0x0F	; 15
     660:	d1 f5       	brne	.+116    	; 0x6d6 <UpdateManState+0xfc>
     662:	0d c0       	rjmp	.+26     	; 0x67e <UpdateManState+0xa4>
				manPage = OHM_MAN;
				justSwitched = 1;
			}
			break;
		case OHM_MAN:
			if (key == 0x10){
     664:	80 31       	cpi	r24, 0x10	; 16
     666:	e1 f0       	breq	.+56     	; 0x6a0 <UpdateManState+0xc6>
				mode = returnMode;
				manPage = WELCOME;
				justSwitched = 1;
			}
			else if (key == 0x0E){
     668:	8e 30       	cpi	r24, 0x0E	; 14
     66a:	11 f4       	brne	.+4      	; 0x670 <UpdateManState+0x96>
				manPage = VOLT_MAN;
     66c:	83 e0       	ldi	r24, 0x03	; 3
     66e:	22 c0       	rjmp	.+68     	; 0x6b4 <UpdateManState+0xda>
				justSwitched = 1;
			}
			else if (key == 0x0F){
     670:	8f 30       	cpi	r24, 0x0F	; 15
     672:	89 f5       	brne	.+98     	; 0x6d6 <UpdateManState+0xfc>
     674:	0d c0       	rjmp	.+26     	; 0x690 <UpdateManState+0xb6>
				manPage = FREQ_MAN;
				justSwitched = 1;
			}
			break;
		case FREQ_MAN:
			if (key == 0x10){
     676:	80 31       	cpi	r24, 0x10	; 16
     678:	99 f0       	breq	.+38     	; 0x6a0 <UpdateManState+0xc6>
				mode = returnMode;
				manPage = WELCOME;
				justSwitched = 1;
			}
			else if (key == 0x0E){
     67a:	8e 30       	cpi	r24, 0x0E	; 14
     67c:	11 f4       	brne	.+4      	; 0x682 <UpdateManState+0xa8>
				manPage = OHM_MAN;
     67e:	84 e0       	ldi	r24, 0x04	; 4
     680:	19 c0       	rjmp	.+50     	; 0x6b4 <UpdateManState+0xda>
				justSwitched = 1;
			}
			else if (key == 0x0F){
     682:	8f 30       	cpi	r24, 0x0F	; 15
     684:	41 f5       	brne	.+80     	; 0x6d6 <UpdateManState+0xfc>
     686:	15 c0       	rjmp	.+42     	; 0x6b2 <UpdateManState+0xd8>
				manPage = AUTORANGE_MAN_1;
				justSwitched = 1;
			}
			break;
		case AUTORANGE_MAN_1:
			if (key == 0x10){
     688:	80 31       	cpi	r24, 0x10	; 16
     68a:	51 f0       	breq	.+20     	; 0x6a0 <UpdateManState+0xc6>
				mode = returnMode;
				manPage = WELCOME;
				justSwitched = 1;
			}
			else if (key == 0x0E){
     68c:	8e 30       	cpi	r24, 0x0E	; 14
     68e:	11 f4       	brne	.+4      	; 0x694 <UpdateManState+0xba>
				manPage = FREQ_MAN;
     690:	85 e0       	ldi	r24, 0x05	; 5
     692:	10 c0       	rjmp	.+32     	; 0x6b4 <UpdateManState+0xda>
				justSwitched = 1;
			}
			else if (key == 0x0F){
     694:	8f 30       	cpi	r24, 0x0F	; 15
     696:	f9 f4       	brne	.+62     	; 0x6d6 <UpdateManState+0xfc>
				manPage = AUTORANGE_MAN_2;
     698:	87 e0       	ldi	r24, 0x07	; 7
     69a:	0c c0       	rjmp	.+24     	; 0x6b4 <UpdateManState+0xda>
				justSwitched = 1;
			}
			break;
		case AUTORANGE_MAN_2:
			if (key == 0x10){
     69c:	80 31       	cpi	r24, 0x10	; 16
     69e:	39 f4       	brne	.+14     	; 0x6ae <UpdateManState+0xd4>
				mode = returnMode;
     6a0:	80 91 ba 02 	lds	r24, 0x02BA
     6a4:	80 93 a4 02 	sts	0x02A4, r24
				manPage = WELCOME;
     6a8:	10 92 bd 02 	sts	0x02BD, r1
     6ac:	05 c0       	rjmp	.+10     	; 0x6b8 <UpdateManState+0xde>
				justSwitched = 1;
			}
			else if (key == 0x0E){
     6ae:	8e 30       	cpi	r24, 0x0E	; 14
     6b0:	39 f4       	brne	.+14     	; 0x6c0 <UpdateManState+0xe6>
				manPage = AUTORANGE_MAN_1;
     6b2:	86 e0       	ldi	r24, 0x06	; 6
     6b4:	80 93 bd 02 	sts	0x02BD, r24
				justSwitched = 1;
     6b8:	81 e0       	ldi	r24, 0x01	; 1
     6ba:	80 93 be 02 	sts	0x02BE, r24
     6be:	08 95       	ret
			}
			else if (key == 0x0F){
     6c0:	8f 30       	cpi	r24, 0x0F	; 15
     6c2:	49 f4       	brne	.+18     	; 0x6d6 <UpdateManState+0xfc>
				mode = returnMode;
     6c4:	80 91 ba 02 	lds	r24, 0x02BA
     6c8:	80 93 a4 02 	sts	0x02A4, r24
				manPage = WELCOME;
     6cc:	10 92 bd 02 	sts	0x02BD, r1
				justSwitched = 1;
     6d0:	81 e0       	ldi	r24, 0x01	; 1
     6d2:	80 93 be 02 	sts	0x02BE, r24
     6d6:	08 95       	ret

000006d8 <UpdateDMMState>:
	PORTB = 0xFF;
	sei();
}

uint8_t getCurKey(void){
	uint8_t tmpKey = curKey;
     6d8:	20 91 b5 02 	lds	r18, 0x02B5
	if (curKey){
     6dc:	80 91 b5 02 	lds	r24, 0x02B5
     6e0:	88 23       	and	r24, r24
     6e2:	11 f0       	breq	.+4      	; 0x6e8 <UpdateDMMState+0x10>
		curKey = 0;
     6e4:	10 92 b5 02 	sts	0x02B5, r1
}

//Update the DMM based on button presses
void UpdateDMMState(void){
	uint8_t key = getCurKey();
	if (key and !justSwitched){
     6e8:	22 23       	and	r18, r18
     6ea:	09 f4       	brne	.+2      	; 0x6ee <UpdateDMMState+0x16>
     6ec:	b6 c0       	rjmp	.+364    	; 0x85a <UpdateDMMState+0x182>
     6ee:	80 91 be 02 	lds	r24, 0x02BE
     6f2:	88 23       	and	r24, r24
     6f4:	09 f0       	breq	.+2      	; 0x6f8 <UpdateDMMState+0x20>
     6f6:	b1 c0       	rjmp	.+354    	; 0x85a <UpdateDMMState+0x182>
		switch (mode){
     6f8:	90 91 a4 02 	lds	r25, 0x02A4
     6fc:	92 30       	cpi	r25, 0x02	; 2
     6fe:	f1 f0       	breq	.+60     	; 0x73c <UpdateDMMState+0x64>
     700:	93 30       	cpi	r25, 0x03	; 3
     702:	30 f4       	brcc	.+12     	; 0x710 <UpdateDMMState+0x38>
     704:	99 23       	and	r25, r25
     706:	51 f0       	breq	.+20     	; 0x71c <UpdateDMMState+0x44>
     708:	91 30       	cpi	r25, 0x01	; 1
     70a:	09 f0       	breq	.+2      	; 0x70e <UpdateDMMState+0x36>
     70c:	a6 c0       	rjmp	.+332    	; 0x85a <UpdateDMMState+0x182>
     70e:	12 c0       	rjmp	.+36     	; 0x734 <UpdateDMMState+0x5c>
     710:	93 30       	cpi	r25, 0x03	; 3
     712:	51 f1       	breq	.+84     	; 0x768 <UpdateDMMState+0x90>
     714:	94 30       	cpi	r25, 0x04	; 4
     716:	09 f0       	breq	.+2      	; 0x71a <UpdateDMMState+0x42>
     718:	a0 c0       	rjmp	.+320    	; 0x85a <UpdateDMMState+0x182>
     71a:	50 c0       	rjmp	.+160    	; 0x7bc <UpdateDMMState+0xe4>
			case INIT:
				if (key == 0x0F){
     71c:	2f 30       	cpi	r18, 0x0F	; 15
     71e:	31 f4       	brne	.+12     	; 0x72c <UpdateDMMState+0x54>
					PORTB = ~0x20;
     720:	8f ed       	ldi	r24, 0xDF	; 223
     722:	85 b9       	out	0x05, r24	; 5
					returnMode = VOLTMETER;
     724:	82 e0       	ldi	r24, 0x02	; 2
     726:	80 93 ba 02 	sts	0x02BA, r24
     72a:	22 c0       	rjmp	.+68     	; 0x770 <UpdateDMMState+0x98>
					mode = MAN;
					justSwitched = 1;
				}
				else {
					mode = VOLTMETER;
     72c:	82 e0       	ldi	r24, 0x02	; 2
     72e:	80 93 a4 02 	sts	0x02A4, r24
     732:	7d c0       	rjmp	.+250    	; 0x82e <UpdateDMMState+0x156>
					justSwitched = 1;
				}
				break; 

			case MAN:
				UpdateManState(key);
     734:	82 2f       	mov	r24, r18
     736:	0e 94 ed 02 	call	0x5da	; 0x5da <UpdateManState>
     73a:	08 95       	ret
				break;
			
			case VOLTMETER:
				if (key == 0x0F){
     73c:	2f 30       	cpi	r18, 0x0F	; 15
     73e:	31 f4       	brne	.+12     	; 0x74c <UpdateDMMState+0x74>
					mode = MAN;
     740:	81 e0       	ldi	r24, 0x01	; 1
     742:	80 93 a4 02 	sts	0x02A4, r24
					returnMode = VOLTMETER;
     746:	90 93 ba 02 	sts	0x02BA, r25
     74a:	72 c0       	rjmp	.+228    	; 0x830 <UpdateDMMState+0x158>
					justSwitched = 1;
				}
				else if (key == 0x0D){
     74c:	2d 30       	cpi	r18, 0x0D	; 13
     74e:	d1 f1       	breq	.+116    	; 0x7c4 <UpdateDMMState+0xec>
					autoRange ^= 1;
					justSwitched = 1;
				}
				else if (!autoRange && key == 0x01){
     750:	80 91 97 02 	lds	r24, 0x0297
     754:	88 23       	and	r24, r24
     756:	11 f4       	brne	.+4      	; 0x75c <UpdateDMMState+0x84>
     758:	21 30       	cpi	r18, 0x01	; 1
     75a:	b1 f0       	breq	.+44     	; 0x788 <UpdateDMMState+0xb0>
					rangeIdx++;
					rangeIdx = rangeIdx % rangeIdxMod;
					justSwitched = 1;
				}
				else if (key == 0x0B){
     75c:	2b 30       	cpi	r18, 0x0B	; 11
     75e:	31 f5       	brne	.+76     	; 0x7ac <UpdateDMMState+0xd4>
					mode = OHMMETER;
     760:	83 e0       	ldi	r24, 0x03	; 3
     762:	80 93 a4 02 	sts	0x02A4, r24
     766:	59 c0       	rjmp	.+178    	; 0x81a <UpdateDMMState+0x142>
					justSwitched = 1;
				}
				break;

			case OHMMETER:
				if (key == 0x0F){
     768:	2f 30       	cpi	r18, 0x0F	; 15
     76a:	31 f4       	brne	.+12     	; 0x778 <UpdateDMMState+0xa0>
					returnMode = OHMMETER;
     76c:	90 93 ba 02 	sts	0x02BA, r25
					mode = MAN;
     770:	81 e0       	ldi	r24, 0x01	; 1
     772:	80 93 a4 02 	sts	0x02A4, r24
     776:	5c c0       	rjmp	.+184    	; 0x830 <UpdateDMMState+0x158>
					justSwitched = 1;
				}
				else if (key == 0x0D){
     778:	2d 30       	cpi	r18, 0x0D	; 13
     77a:	21 f1       	breq	.+72     	; 0x7c4 <UpdateDMMState+0xec>
					autoRange ^= 1;
					justSwitched = 1;
				}
				else if (!autoRange && key == 0x01){
     77c:	80 91 97 02 	lds	r24, 0x0297
     780:	88 23       	and	r24, r24
     782:	91 f4       	brne	.+36     	; 0x7a8 <UpdateDMMState+0xd0>
     784:	21 30       	cpi	r18, 0x01	; 1
     786:	81 f4       	brne	.+32     	; 0x7a8 <UpdateDMMState+0xd0>
					rangeIdx++;
     788:	80 91 bb 02 	lds	r24, 0x02BB
     78c:	8f 5f       	subi	r24, 0xFF	; 255
     78e:	80 93 bb 02 	sts	0x02BB, r24
					rangeIdx = rangeIdx % rangeIdxMod;
     792:	80 91 bb 02 	lds	r24, 0x02BB
     796:	60 91 94 02 	lds	r22, 0x0294
     79a:	0e 94 9a 0f 	call	0x1f34	; 0x1f34 <__udivmodqi4>
     79e:	90 93 bb 02 	sts	0x02BB, r25
					justSwitched = 1;
     7a2:	20 93 be 02 	sts	0x02BE, r18
     7a6:	08 95       	ret
				}
				else if (key == 0x0A){
     7a8:	2a 30       	cpi	r18, 0x0A	; 10
     7aa:	99 f1       	breq	.+102    	; 0x812 <UpdateDMMState+0x13a>
					mode = VOLTMETER;
					rangeIdxMod = 3;
					rangeIdx = rangeIdx % rangeIdxMod;
					justSwitched = 1;
				}
				else if (key == 0x0C){
     7ac:	2c 30       	cpi	r18, 0x0C	; 12
     7ae:	09 f0       	breq	.+2      	; 0x7b2 <UpdateDMMState+0xda>
     7b0:	54 c0       	rjmp	.+168    	; 0x85a <UpdateDMMState+0x182>
					mode = FREQMETER;
     7b2:	84 e0       	ldi	r24, 0x04	; 4
     7b4:	80 93 a4 02 	sts	0x02A4, r24
					rangeIdxMod = 2;
     7b8:	82 e0       	ldi	r24, 0x02	; 2
     7ba:	2f c0       	rjmp	.+94     	; 0x81a <UpdateDMMState+0x142>
					justSwitched = 1;
				}
				break;

			case FREQMETER:
				if (key == 0x0F){
     7bc:	2f 30       	cpi	r18, 0x0F	; 15
     7be:	b1 f2       	breq	.-84     	; 0x76c <UpdateDMMState+0x94>
					returnMode = FREQMETER;
					mode = MAN;
					justSwitched = 1;
				}
				else if (key == 0x0D){
     7c0:	2d 30       	cpi	r18, 0x0D	; 13
     7c2:	49 f4       	brne	.+18     	; 0x7d6 <UpdateDMMState+0xfe>
					autoRange ^= 1;
     7c4:	80 91 97 02 	lds	r24, 0x0297
     7c8:	91 e0       	ldi	r25, 0x01	; 1
     7ca:	89 27       	eor	r24, r25
     7cc:	80 93 97 02 	sts	0x0297, r24
					justSwitched = 1;
     7d0:	90 93 be 02 	sts	0x02BE, r25
     7d4:	08 95       	ret
				}
				else if (!autoRange && key == 0x01){
     7d6:	80 91 97 02 	lds	r24, 0x0297
     7da:	88 23       	and	r24, r24
     7dc:	c1 f4       	brne	.+48     	; 0x80e <UpdateDMMState+0x136>
     7de:	21 30       	cpi	r18, 0x01	; 1
     7e0:	b1 f4       	brne	.+44     	; 0x80e <UpdateDMMState+0x136>
					rangeIdx++;
     7e2:	80 91 bb 02 	lds	r24, 0x02BB
     7e6:	8f 5f       	subi	r24, 0xFF	; 255
     7e8:	80 93 bb 02 	sts	0x02BB, r24
					rangeIdx = rangeIdx % rangeIdxMod;
     7ec:	80 91 bb 02 	lds	r24, 0x02BB
     7f0:	60 91 94 02 	lds	r22, 0x0294
     7f4:	0e 94 9a 0f 	call	0x1f34	; 0x1f34 <__udivmodqi4>
     7f8:	90 93 bb 02 	sts	0x02BB, r25
					frequencyRef = frequencyRanges[rangeIdx];
     7fc:	e0 91 bb 02 	lds	r30, 0x02BB
     800:	f0 e0       	ldi	r31, 0x00	; 0
     802:	e1 5f       	subi	r30, 0xF1	; 241
     804:	fe 4f       	sbci	r31, 0xFE	; 254
     806:	80 81       	ld	r24, Z
     808:	80 93 bf 02 	sts	0x02BF, r24
     80c:	10 c0       	rjmp	.+32     	; 0x82e <UpdateDMMState+0x156>
					justSwitched = 1;
				}
				else if (key == 0x0A){
     80e:	2a 30       	cpi	r18, 0x0A	; 10
     810:	91 f4       	brne	.+36     	; 0x836 <UpdateDMMState+0x15e>
					mode = VOLTMETER;
     812:	82 e0       	ldi	r24, 0x02	; 2
     814:	80 93 a4 02 	sts	0x02A4, r24
					rangeIdxMod = 3;
     818:	83 e0       	ldi	r24, 0x03	; 3
     81a:	80 93 94 02 	sts	0x0294, r24
					rangeIdx = rangeIdx % rangeIdxMod;
     81e:	80 91 bb 02 	lds	r24, 0x02BB
     822:	60 91 94 02 	lds	r22, 0x0294
     826:	0e 94 9a 0f 	call	0x1f34	; 0x1f34 <__udivmodqi4>
     82a:	90 93 bb 02 	sts	0x02BB, r25
					justSwitched = 1;
     82e:	81 e0       	ldi	r24, 0x01	; 1
     830:	80 93 be 02 	sts	0x02BE, r24
     834:	08 95       	ret
				}
				else if (key == 0x0B){
     836:	2b 30       	cpi	r18, 0x0B	; 11
     838:	81 f4       	brne	.+32     	; 0x85a <UpdateDMMState+0x182>
					mode = OHMMETER;
     83a:	83 e0       	ldi	r24, 0x03	; 3
     83c:	80 93 a4 02 	sts	0x02A4, r24
					rangeIdxMod = 3;
     840:	80 93 94 02 	sts	0x0294, r24
					rangeIdx = rangeIdx % rangeIdxMod;
     844:	80 91 bb 02 	lds	r24, 0x02BB
     848:	60 91 94 02 	lds	r22, 0x0294
     84c:	0e 94 9a 0f 	call	0x1f34	; 0x1f34 <__udivmodqi4>
     850:	90 93 bb 02 	sts	0x02BB, r25
					justSwitched = 1;
     854:	81 e0       	ldi	r24, 0x01	; 1
     856:	80 93 be 02 	sts	0x02BE, r24
     85a:	08 95       	ret

0000085c <__vector_16>:

//TIMER INTERRUPTS*************************************************************

//timer 0 compare ISR
//Executes every 1ms
ISR (TIMER0_COMPA_vect){
     85c:	1f 92       	push	r1
     85e:	0f 92       	push	r0
     860:	0f b6       	in	r0, 0x3f	; 63
     862:	0f 92       	push	r0
     864:	11 24       	eor	r1, r1
     866:	2f 93       	push	r18
     868:	3f 93       	push	r19
     86a:	4f 93       	push	r20
     86c:	5f 93       	push	r21
     86e:	6f 93       	push	r22
     870:	7f 93       	push	r23
     872:	8f 93       	push	r24
     874:	9f 93       	push	r25
     876:	af 93       	push	r26
     878:	bf 93       	push	r27
     87a:	ef 93       	push	r30
     87c:	ff 93       	push	r31
	//check for overflow. If the elapsedTime overflows, reset debounceTime
	//as well
	
	uint8_t debounceFlag1 = 1;
	uint8_t debounceFlag2 = 0;
	if (elapsedTime >= debounceTime && debounceTime < DEBOUNCE_TIME){
     87e:	20 91 95 02 	lds	r18, 0x0295
     882:	30 91 96 02 	lds	r19, 0x0296
     886:	80 91 b6 02 	lds	r24, 0x02B6
     88a:	90 91 b7 02 	lds	r25, 0x02B7
     88e:	28 17       	cp	r18, r24
     890:	39 07       	cpc	r19, r25
     892:	38 f0       	brcs	.+14     	; 0x8a2 <__vector_16+0x46>
     894:	80 91 b6 02 	lds	r24, 0x02B6
     898:	90 91 b7 02 	lds	r25, 0x02B7
     89c:	70 e0       	ldi	r23, 0x00	; 0
     89e:	4e 97       	sbiw	r24, 0x1e	; 30
     8a0:	08 f0       	brcs	.+2      	; 0x8a4 <__vector_16+0x48>
     8a2:	71 e0       	ldi	r23, 0x01	; 1
		debounceFlag1 = 0;
	}
	
	//check if we are waiting to debounce. If we are, then take precautions
	//so that there are no overflow errors
	if (0xff - debounceTime < DEBOUNCE_TIME){
     8a4:	20 91 b6 02 	lds	r18, 0x02B6
     8a8:	30 91 b7 02 	lds	r19, 0x02B7
     8ac:	8f ef       	ldi	r24, 0xFF	; 255
     8ae:	90 e0       	ldi	r25, 0x00	; 0
     8b0:	82 1b       	sub	r24, r18
     8b2:	93 0b       	sbc	r25, r19
     8b4:	4e 97       	sbiw	r24, 0x1e	; 30
     8b6:	10 f0       	brcs	.+4      	; 0x8bc <__vector_16+0x60>
     8b8:	60 e0       	ldi	r22, 0x00	; 0
     8ba:	12 c0       	rjmp	.+36     	; 0x8e0 <__vector_16+0x84>
		uint8_t diff = 0xff - debounceTime;
     8bc:	80 91 b6 02 	lds	r24, 0x02B6
     8c0:	90 91 b7 02 	lds	r25, 0x02B7
		if (elapsedTime >= DEBOUNCE_TIME - diff){
     8c4:	40 91 95 02 	lds	r20, 0x0295
     8c8:	50 91 96 02 	lds	r21, 0x0296
     8cc:	60 e0       	ldi	r22, 0x00	; 0
     8ce:	80 95       	com	r24
     8d0:	2e e1       	ldi	r18, 0x1E	; 30
     8d2:	30 e0       	ldi	r19, 0x00	; 0
     8d4:	28 1b       	sub	r18, r24
     8d6:	31 09       	sbc	r19, r1
     8d8:	42 17       	cp	r20, r18
     8da:	53 07       	cpc	r21, r19
     8dc:	08 f0       	brcs	.+2      	; 0x8e0 <__vector_16+0x84>
     8de:	61 e0       	ldi	r22, 0x01	; 1
			debounceFlag2 = 1;
		}
	}

	elapsedTime++;
     8e0:	80 91 95 02 	lds	r24, 0x0295
     8e4:	90 91 96 02 	lds	r25, 0x0296
     8e8:	01 96       	adiw	r24, 0x01	; 1
     8ea:	90 93 96 02 	sts	0x0296, r25
     8ee:	80 93 95 02 	sts	0x0295, r24
	if ((elapsedTime >= debounceTime && debounceFlag1) || (elapsedTime < debounceTime && debounceFlag2)){
     8f2:	20 91 95 02 	lds	r18, 0x0295
     8f6:	30 91 96 02 	lds	r19, 0x0296
     8fa:	80 91 b6 02 	lds	r24, 0x02B6
     8fe:	90 91 b7 02 	lds	r25, 0x02B7
     902:	28 17       	cp	r18, r24
     904:	39 07       	cpc	r19, r25
     906:	10 f0       	brcs	.+4      	; 0x90c <__vector_16+0xb0>
     908:	77 23       	and	r23, r23
     90a:	69 f4       	brne	.+26     	; 0x926 <__vector_16+0xca>
     90c:	20 91 95 02 	lds	r18, 0x0295
     910:	30 91 96 02 	lds	r19, 0x0296
     914:	80 91 b6 02 	lds	r24, 0x02B6
     918:	90 91 b7 02 	lds	r25, 0x02B7
     91c:	28 17       	cp	r18, r24
     91e:	39 07       	cpc	r19, r25
     920:	30 f4       	brcc	.+12     	; 0x92e <__vector_16+0xd2>
     922:	66 23       	and	r22, r22
     924:	21 f0       	breq	.+8      	; 0x92e <__vector_16+0xd2>
		Debounce();
     926:	0e 94 7d 02 	call	0x4fa	; 0x4fa <Debounce>
		UpdateDMMState();
     92a:	0e 94 6c 03 	call	0x6d8	; 0x6d8 <UpdateDMMState>
	}

	if((elapsedTime % 200) == 0) {
     92e:	80 91 95 02 	lds	r24, 0x0295
     932:	90 91 96 02 	lds	r25, 0x0296
     936:	68 ec       	ldi	r22, 0xC8	; 200
     938:	70 e0       	ldi	r23, 0x00	; 0
     93a:	0e 94 a6 0f 	call	0x1f4c	; 0x1f4c <__udivmodhi4>
     93e:	89 2b       	or	r24, r25
     940:	19 f4       	brne	.+6      	; 0x948 <__vector_16+0xec>
		triggerPoll = 1;
     942:	81 e0       	ldi	r24, 0x01	; 1
     944:	80 93 9f 02 	sts	0x029F, r24
	}
}
     948:	ff 91       	pop	r31
     94a:	ef 91       	pop	r30
     94c:	bf 91       	pop	r27
     94e:	af 91       	pop	r26
     950:	9f 91       	pop	r25
     952:	8f 91       	pop	r24
     954:	7f 91       	pop	r23
     956:	6f 91       	pop	r22
     958:	5f 91       	pop	r21
     95a:	4f 91       	pop	r20
     95c:	3f 91       	pop	r19
     95e:	2f 91       	pop	r18
     960:	0f 90       	pop	r0
     962:	0f be       	out	0x3f, r0	; 63
     964:	0f 90       	pop	r0
     966:	1f 90       	pop	r1
     968:	18 95       	reti

0000096a <setVref>:
	CopyStringtoLCD(LCDBlank, 0, 0);
	LCDGotoXY(0, 0);
	LCDstring(LCDBuffer, strlen(LCDBuffer));
}

void setVref(uint8_t idx) {
     96a:	e8 2f       	mov	r30, r24
	switch(idx) {
     96c:	81 30       	cpi	r24, 0x01	; 1
     96e:	39 f0       	breq	.+14     	; 0x97e <setVref+0x14>
     970:	81 30       	cpi	r24, 0x01	; 1
     972:	18 f0       	brcs	.+6      	; 0x97a <setVref+0x10>
     974:	82 30       	cpi	r24, 0x02	; 2
     976:	41 f4       	brne	.+16     	; 0x988 <setVref+0x1e>
     978:	04 c0       	rjmp	.+8      	; 0x982 <setVref+0x18>
		case 0:
			ADMUX = (1 << ADLAR) | (1 << REFS0); //5v
     97a:	80 e6       	ldi	r24, 0x60	; 96
     97c:	03 c0       	rjmp	.+6      	; 0x984 <setVref+0x1a>
			break;
		case 1:
			ADMUX = (1 << ADLAR) | (3 << REFS0); //2.56v
     97e:	80 ee       	ldi	r24, 0xE0	; 224
     980:	01 c0       	rjmp	.+2      	; 0x984 <setVref+0x1a>
			break;
		case 2:
			ADMUX = (1 << ADLAR) | (2 << REFS0); //1.1v
     982:	80 ea       	ldi	r24, 0xA0	; 160
     984:	80 93 7c 00 	sts	0x007C, r24
			break;
	}
	Vref = VrefRanges[idx];
     988:	f0 e0       	ldi	r31, 0x00	; 0
     98a:	ee 0f       	add	r30, r30
     98c:	ff 1f       	adc	r31, r31
     98e:	ee 0f       	add	r30, r30
     990:	ff 1f       	adc	r31, r31
     992:	e0 50       	subi	r30, 0x00	; 0
     994:	ff 4f       	sbci	r31, 0xFF	; 255
     996:	80 81       	ld	r24, Z
     998:	91 81       	ldd	r25, Z+1	; 0x01
     99a:	a2 81       	ldd	r26, Z+2	; 0x02
     99c:	b3 81       	ldd	r27, Z+3	; 0x03
     99e:	80 93 ad 02 	sts	0x02AD, r24
     9a2:	90 93 ae 02 	sts	0x02AE, r25
     9a6:	a0 93 af 02 	sts	0x02AF, r26
     9aa:	b0 93 b0 02 	sts	0x02B0, r27
}
     9ae:	08 95       	ret

000009b0 <setOref>:

void setOref(uint8_t idx) {
     9b0:	e8 2f       	mov	r30, r24
	// Don't use Oref
	if(idx < 0 || idx > 2) {
     9b2:	83 30       	cpi	r24, 0x03	; 3
     9b4:	10 f0       	brcs	.+4      	; 0x9ba <setOref+0xa>
		DDRA = 0x00;
     9b6:	11 b8       	out	0x01, r1	; 1
     9b8:	08 95       	ret
		return;
	}
	switch(idx) {
     9ba:	81 30       	cpi	r24, 0x01	; 1
     9bc:	39 f0       	breq	.+14     	; 0x9cc <setOref+0x1c>
     9be:	81 30       	cpi	r24, 0x01	; 1
     9c0:	18 f0       	brcs	.+6      	; 0x9c8 <setOref+0x18>
     9c2:	82 30       	cpi	r24, 0x02	; 2
     9c4:	39 f4       	brne	.+14     	; 0x9d4 <setOref+0x24>
     9c6:	04 c0       	rjmp	.+8      	; 0x9d0 <setOref+0x20>
		case 0:
			DDRA = (1 << 7); //100k resistor output
     9c8:	80 e8       	ldi	r24, 0x80	; 128
     9ca:	03 c0       	rjmp	.+6      	; 0x9d2 <setOref+0x22>
			break;
		case 1:
			DDRA = (1 << 6); //10k resistor output
     9cc:	80 e4       	ldi	r24, 0x40	; 64
     9ce:	01 c0       	rjmp	.+2      	; 0x9d2 <setOref+0x22>
			break;
		case 2:
			DDRA = (1 << 5); //1k resistor output
     9d0:	80 e2       	ldi	r24, 0x20	; 32
     9d2:	81 b9       	out	0x01, r24	; 1
			break;
	}
	ohmRef = resistorRanges[idx];
     9d4:	f0 e0       	ldi	r31, 0x00	; 0
     9d6:	e4 5f       	subi	r30, 0xF4	; 244
     9d8:	fe 4f       	sbci	r31, 0xFE	; 254
     9da:	80 81       	ld	r24, Z
     9dc:	80 93 98 02 	sts	0x0298, r24
	PORTA = DDRA;
     9e0:	81 b1       	in	r24, 0x01	; 1
     9e2:	82 b9       	out	0x02, r24	; 2
     9e4:	08 95       	ret

000009e6 <Autorange>:
}

// Set rangeIdx if autoRange
void Autorange(void){
	if(autoRange) {
     9e6:	80 91 97 02 	lds	r24, 0x0297
     9ea:	88 23       	and	r24, r24
     9ec:	09 f4       	brne	.+2      	; 0x9f0 <Autorange+0xa>
     9ee:	52 c0       	rjmp	.+164    	; 0xa94 <Autorange+0xae>
		switch (mode){
     9f0:	80 91 a4 02 	lds	r24, 0x02A4
     9f4:	82 30       	cpi	r24, 0x02	; 2
     9f6:	21 f0       	breq	.+8      	; 0xa00 <Autorange+0x1a>
     9f8:	83 30       	cpi	r24, 0x03	; 3
     9fa:	09 f0       	breq	.+2      	; 0x9fe <Autorange+0x18>
     9fc:	4b c0       	rjmp	.+150    	; 0xa94 <Autorange+0xae>
     9fe:	27 c0       	rjmp	.+78     	; 0xa4e <Autorange+0x68>
			case VOLTMETER:
				switch (rangeIdx){
     a00:	80 91 bb 02 	lds	r24, 0x02BB
     a04:	81 30       	cpi	r24, 0x01	; 1
     a06:	51 f0       	breq	.+20     	; 0xa1c <Autorange+0x36>
     a08:	81 30       	cpi	r24, 0x01	; 1
     a0a:	18 f0       	brcs	.+6      	; 0xa12 <Autorange+0x2c>
     a0c:	82 30       	cpi	r24, 0x02	; 2
     a0e:	b9 f4       	brne	.+46     	; 0xa3e <Autorange+0x58>
     a10:	0d c0       	rjmp	.+26     	; 0xa2c <Autorange+0x46>
					//In the 5 Volt range, move to a smaller scale if the voltage is less than 0.525 of Vref
					case 0:
						if (Ain < 128){
     a12:	80 91 bc 02 	lds	r24, 0x02BC
     a16:	87 fd       	sbrc	r24, 7
     a18:	12 c0       	rjmp	.+36     	; 0xa3e <Autorange+0x58>
     a1a:	04 c0       	rjmp	.+8      	; 0xa24 <Autorange+0x3e>
						}
						break;
					//In the 2.56 Volt range, move to a smaller scale if the voltage is less than 0.4 of Vref
					//or move to a larger scale if the voltage is close to Vref
					case 1:
						if (Ain < 100){
     a1c:	80 91 bc 02 	lds	r24, 0x02BC
     a20:	84 36       	cpi	r24, 0x64	; 100
     a22:	20 f4       	brcc	.+8      	; 0xa2c <Autorange+0x46>
							rangeIdx++;
     a24:	80 91 bb 02 	lds	r24, 0x02BB
     a28:	8f 5f       	subi	r24, 0xFF	; 255
     a2a:	07 c0       	rjmp	.+14     	; 0xa3a <Autorange+0x54>
							rangeIdx--;
						}
						break;
					//In the 1.1 Volt range, move to a larger scale if the voltage is close to Vref
					case 2:
						if (Ain > 250){
     a2c:	80 91 bc 02 	lds	r24, 0x02BC
     a30:	8b 3f       	cpi	r24, 0xFB	; 251
     a32:	28 f0       	brcs	.+10     	; 0xa3e <Autorange+0x58>
							rangeIdx--;
     a34:	80 91 bb 02 	lds	r24, 0x02BB
     a38:	81 50       	subi	r24, 0x01	; 1
     a3a:	80 93 bb 02 	sts	0x02BB, r24
						}
						break;
				}
				setOref(3); // disable ohmref
     a3e:	83 e0       	ldi	r24, 0x03	; 3
     a40:	0e 94 d8 04 	call	0x9b0	; 0x9b0 <setOref>
				setVref(rangeIdx);
     a44:	80 91 bb 02 	lds	r24, 0x02BB
     a48:	0e 94 b5 04 	call	0x96a	; 0x96a <setVref>
     a4c:	08 95       	ret
				break;

			case OHMMETER:
				switch (rangeIdx){
     a4e:	80 91 bb 02 	lds	r24, 0x02BB
     a52:	81 30       	cpi	r24, 0x01	; 1
     a54:	51 f0       	breq	.+20     	; 0xa6a <Autorange+0x84>
     a56:	81 30       	cpi	r24, 0x01	; 1
     a58:	18 f0       	brcs	.+6      	; 0xa60 <Autorange+0x7a>
     a5a:	82 30       	cpi	r24, 0x02	; 2
     a5c:	b9 f4       	brne	.+46     	; 0xa8c <Autorange+0xa6>
     a5e:	0d c0       	rjmp	.+26     	; 0xa7a <Autorange+0x94>
					//In the 100kOhm range, move to a smaller scale if the resistance is less than 0.4 of Vcc 
					//(R_test is less than 10% of R) 
					case 0:
						if (Ain < 100){
     a60:	80 91 bc 02 	lds	r24, 0x02BC
     a64:	84 36       	cpi	r24, 0x64	; 100
     a66:	90 f4       	brcc	.+36     	; 0xa8c <Autorange+0xa6>
     a68:	04 c0       	rjmp	.+8      	; 0xa72 <Autorange+0x8c>
				
					//In the 10kOhm range, move to a smaller scale if the reading is less than 0.4 of Vcc
					//(R_test is less than 10% of R). Move to a larger sclae if the reading is almost Vcc
					//(R_test is almost 95% of R).
					case 1:
						if (Ain < 100){
     a6a:	80 91 bc 02 	lds	r24, 0x02BC
     a6e:	84 36       	cpi	r24, 0x64	; 100
     a70:	20 f4       	brcc	.+8      	; 0xa7a <Autorange+0x94>
								rangeIdx++;
     a72:	80 91 bb 02 	lds	r24, 0x02BB
     a76:	8f 5f       	subi	r24, 0xFF	; 255
     a78:	07 c0       	rjmp	.+14     	; 0xa88 <Autorange+0xa2>
						break;
	
					//In the 10kOhm range, move to a larger scale if the reading is almost Vcc 
					//(R_test is almost 95% of R).
					case 2:
						if (Ain > 250){
     a7a:	80 91 bc 02 	lds	r24, 0x02BC
     a7e:	8b 3f       	cpi	r24, 0xFB	; 251
     a80:	28 f0       	brcs	.+10     	; 0xa8c <Autorange+0xa6>
							rangeIdx--;
     a82:	80 91 bb 02 	lds	r24, 0x02BB
     a86:	81 50       	subi	r24, 0x01	; 1
     a88:	80 93 bb 02 	sts	0x02BB, r24
						}
					break;
				}
				setOref(rangeIdx);
     a8c:	80 91 bb 02 	lds	r24, 0x02BB
     a90:	0e 94 d8 04 	call	0x9b0	; 0x9b0 <setOref>
     a94:	08 95       	ret

00000a96 <poll>:
			}
			break;
	}
}

void poll(void) {
     a96:	6f 92       	push	r6
     a98:	7f 92       	push	r7
     a9a:	8f 92       	push	r8
     a9c:	9f 92       	push	r9
     a9e:	af 92       	push	r10
     aa0:	bf 92       	push	r11
     aa2:	cf 92       	push	r12
     aa4:	df 92       	push	r13
     aa6:	ef 92       	push	r14
     aa8:	ff 92       	push	r15
     aaa:	0f 93       	push	r16
     aac:	1f 93       	push	r17
	//get the sample
	Ain = ADCH;
     aae:	80 91 79 00 	lds	r24, 0x0079
     ab2:	80 93 bc 02 	sts	0x02BC, r24
	//start another conversion
	ADCSRA |= (1<<ADSC);
     ab6:	80 91 7a 00 	lds	r24, 0x007A
     aba:	80 64       	ori	r24, 0x40	; 64
     abc:	80 93 7a 00 	sts	0x007A, r24
	voltage = (float)Ain;
     ac0:	60 91 bc 02 	lds	r22, 0x02BC
	voltage = (voltage/256.0) * Vref;
     ac4:	e0 90 ad 02 	lds	r14, 0x02AD
     ac8:	f0 90 ae 02 	lds	r15, 0x02AE
     acc:	00 91 af 02 	lds	r16, 0x02AF
     ad0:	10 91 b0 02 	lds	r17, 0x02B0
     ad4:	70 e0       	ldi	r23, 0x00	; 0
     ad6:	80 e0       	ldi	r24, 0x00	; 0
     ad8:	90 e0       	ldi	r25, 0x00	; 0
     ada:	0e 94 85 0d 	call	0x1b0a	; 0x1b0a <__floatunsisf>
     ade:	20 e0       	ldi	r18, 0x00	; 0
     ae0:	30 e0       	ldi	r19, 0x00	; 0
     ae2:	40 e8       	ldi	r20, 0x80	; 128
     ae4:	5b e3       	ldi	r21, 0x3B	; 59
     ae6:	0e 94 81 0b 	call	0x1702	; 0x1702 <__mulsf3>
     aea:	a8 01       	movw	r20, r16
     aec:	97 01       	movw	r18, r14
     aee:	0e 94 81 0b 	call	0x1702	; 0x1702 <__mulsf3>
     af2:	3b 01       	movw	r6, r22
     af4:	4c 01       	movw	r8, r24
     af6:	60 93 9b 02 	sts	0x029B, r22
     afa:	70 93 9c 02 	sts	0x029C, r23
     afe:	80 93 9d 02 	sts	0x029D, r24
     b02:	90 93 9e 02 	sts	0x029E, r25
	ohm = (ohmRef * voltage)/(Vref - voltage);
     b06:	60 91 98 02 	lds	r22, 0x0298
     b0a:	a0 90 ad 02 	lds	r10, 0x02AD
     b0e:	b0 90 ae 02 	lds	r11, 0x02AE
     b12:	c0 90 af 02 	lds	r12, 0x02AF
     b16:	d0 90 b0 02 	lds	r13, 0x02B0
     b1a:	70 e0       	ldi	r23, 0x00	; 0
     b1c:	88 27       	eor	r24, r24
     b1e:	77 fd       	sbrc	r23, 7
     b20:	80 95       	com	r24
     b22:	98 2f       	mov	r25, r24
     b24:	0e 94 27 0d 	call	0x1a4e	; 0x1a4e <__floatsisf>
     b28:	a4 01       	movw	r20, r8
     b2a:	93 01       	movw	r18, r6
     b2c:	0e 94 81 0b 	call	0x1702	; 0x1702 <__mulsf3>
     b30:	7b 01       	movw	r14, r22
     b32:	8c 01       	movw	r16, r24
     b34:	c6 01       	movw	r24, r12
     b36:	b5 01       	movw	r22, r10
     b38:	a4 01       	movw	r20, r8
     b3a:	93 01       	movw	r18, r6
     b3c:	0e 94 23 0b 	call	0x1646	; 0x1646 <__subsf3>
     b40:	9b 01       	movw	r18, r22
     b42:	ac 01       	movw	r20, r24
     b44:	c8 01       	movw	r24, r16
     b46:	b7 01       	movw	r22, r14
     b48:	0e 94 7b 0c 	call	0x18f6	; 0x18f6 <__divsf3>
     b4c:	7b 01       	movw	r14, r22
     b4e:	8c 01       	movw	r16, r24
     b50:	cb 01       	movw	r24, r22
     b52:	d8 01       	movw	r26, r16
     b54:	80 93 a0 02 	sts	0x02A0, r24
     b58:	90 93 a1 02 	sts	0x02A1, r25
     b5c:	a0 93 a2 02 	sts	0x02A2, r26
     b60:	b0 93 a3 02 	sts	0x02A3, r27
	switch(mode) {
     b64:	80 91 a4 02 	lds	r24, 0x02A4
     b68:	82 30       	cpi	r24, 0x02	; 2
     b6a:	19 f0       	breq	.+6      	; 0xb72 <poll+0xdc>
     b6c:	83 30       	cpi	r24, 0x03	; 3
     b6e:	61 f4       	brne	.+24     	; 0xb88 <poll+0xf2>
     b70:	03 c0       	rjmp	.+6      	; 0xb78 <poll+0xe2>
		case VOLTMETER:
			dtostrf(voltage, 4, 2, v_string);
     b72:	c4 01       	movw	r24, r8
     b74:	b3 01       	movw	r22, r6
     b76:	02 c0       	rjmp	.+4      	; 0xb7c <poll+0xe6>
			break;
		case OHMMETER:
			dtostrf(ohm, 4, 2, v_string);
     b78:	b7 01       	movw	r22, r14
     b7a:	c8 01       	movw	r24, r16
     b7c:	44 e0       	ldi	r20, 0x04	; 4
     b7e:	22 e0       	ldi	r18, 0x02	; 2
     b80:	01 eb       	ldi	r16, 0xB1	; 177
     b82:	12 e0       	ldi	r17, 0x02	; 2
     b84:	0e 94 04 10 	call	0x2008	; 0x2008 <dtostrf>
			break;
	}
	sprintf(LCDBuffer, "%s",v_string);
     b88:	07 ea       	ldi	r16, 0xA7	; 167
     b8a:	12 e0       	ldi	r17, 0x02	; 2
     b8c:	c8 01       	movw	r24, r16
     b8e:	61 eb       	ldi	r22, 0xB1	; 177
     b90:	72 e0       	ldi	r23, 0x02	; 2
     b92:	0e 94 25 10 	call	0x204a	; 0x204a <strcpy>

	CopyStringtoLCD(LCDBlank, 0, 0);
     b96:	80 e7       	ldi	r24, 0x70	; 112
     b98:	90 e0       	ldi	r25, 0x00	; 0
     b9a:	60 e0       	ldi	r22, 0x00	; 0
     b9c:	40 e0       	ldi	r20, 0x00	; 0
     b9e:	0e 94 e0 07 	call	0xfc0	; 0xfc0 <CopyStringtoLCD>
	LCDGotoXY(0, 0);
     ba2:	80 e0       	ldi	r24, 0x00	; 0
     ba4:	60 e0       	ldi	r22, 0x00	; 0
     ba6:	0e 94 d1 07 	call	0xfa2	; 0xfa2 <LCDGotoXY>
	LCDstring(LCDBuffer, strlen(LCDBuffer));
     baa:	f8 01       	movw	r30, r16
     bac:	01 90       	ld	r0, Z+
     bae:	00 20       	and	r0, r0
     bb0:	e9 f7       	brne	.-6      	; 0xbac <poll+0x116>
     bb2:	31 97       	sbiw	r30, 0x01	; 1
     bb4:	e0 1b       	sub	r30, r16
     bb6:	f1 0b       	sbc	r31, r17
     bb8:	c8 01       	movw	r24, r16
     bba:	6e 2f       	mov	r22, r30
     bbc:	0e 94 bc 07 	call	0xf78	; 0xf78 <LCDstring>
}
     bc0:	1f 91       	pop	r17
     bc2:	0f 91       	pop	r16
     bc4:	ff 90       	pop	r15
     bc6:	ef 90       	pop	r14
     bc8:	df 90       	pop	r13
     bca:	cf 90       	pop	r12
     bcc:	bf 90       	pop	r11
     bce:	af 90       	pop	r10
     bd0:	9f 90       	pop	r9
     bd2:	8f 90       	pop	r8
     bd4:	7f 90       	pop	r7
     bd6:	6f 90       	pop	r6
     bd8:	08 95       	ret

00000bda <InitLCD>:
	return tmpKey;
}

//Initialize the LCD
void InitLCD(void){
	LCDinit();	//initialize the display
     bda:	0e 94 1b 08 	call	0x1036	; 0x1036 <LCDinit>
	LCDcursorOFF();
     bde:	0e 94 83 08 	call	0x1106	; 0x1106 <LCDcursorOFF>
	LCDclr();				//clear the display
     be2:	0e 94 b4 07 	call	0xf68	; 0xf68 <LCDclr>
	LCDGotoXY(0,0);
     be6:	80 e0       	ldi	r24, 0x00	; 0
     be8:	60 e0       	ldi	r22, 0x00	; 0
     bea:	0e 94 d1 07 	call	0xfa2	; 0xfa2 <LCDGotoXY>
	CopyStringtoLCD(LCDHelloTop, 0, 0);
     bee:	82 e8       	ldi	r24, 0x82	; 130
     bf0:	90 e0       	ldi	r25, 0x00	; 0
     bf2:	60 e0       	ldi	r22, 0x00	; 0
     bf4:	40 e0       	ldi	r20, 0x00	; 0
     bf6:	0e 94 e0 07 	call	0xfc0	; 0xfc0 <CopyStringtoLCD>
	CopyStringtoLCD(LCDHelloBot, 0, 1);
     bfa:	84 e9       	ldi	r24, 0x94	; 148
     bfc:	90 e0       	ldi	r25, 0x00	; 0
     bfe:	60 e0       	ldi	r22, 0x00	; 0
     c00:	41 e0       	ldi	r20, 0x01	; 1
     c02:	0e 94 e0 07 	call	0xfc0	; 0xfc0 <CopyStringtoLCD>
}
     c06:	08 95       	ret

00000c08 <Initialize>:
		}
		break;
	}
}

void Initialize(void) {
     c08:	1f 93       	push	r17
	//set up the ports
	triggerPoll = 0;
     c0a:	10 92 9f 02 	sts	0x029F, r1

	//init the A to D converter
	setVref(0); //Set to 5v Vref
     c0e:	80 e0       	ldi	r24, 0x00	; 0
     c10:	0e 94 b5 04 	call	0x96a	; 0x96a <setVref>
	setOref(3); //Disable ohmref
     c14:	83 e0       	ldi	r24, 0x03	; 3
     c16:	0e 94 d8 04 	call	0x9b0	; 0x9b0 <setOref>

	//enable ADC and set prescaler to 1/128*16MHz=125,000
	//and clear interupt enable
	//and start a conversion
	ADCSRA = (1<<ADEN) + 7;
     c1a:	87 e8       	ldi	r24, 0x87	; 135
     c1c:	80 93 7a 00 	sts	0x007A, r24

	// Set A to input (high impedence)
	DDRA = 0x00;
     c20:	11 b8       	out	0x01, r1	; 1

	// PortB: LEDs, output
	DDRB=0xff;
     c22:	1f ef       	ldi	r17, 0xFF	; 255
     c24:	14 b9       	out	0x04, r17	; 4
	PORTB=0xff;
     c26:	15 b9       	out	0x05, r17	; 5
	// PortD: Keypad
	DDRD=0x00;
     c28:	1a b8       	out	0x0a, r1	; 10

	//set up timer 0 for 1 mSec ticks
	TIMSK0 = 2;		//turn on timer 0 cmp match ISR
     c2a:	92 e0       	ldi	r25, 0x02	; 2
     c2c:	90 93 6e 00 	sts	0x006E, r25
	OCR0A = 249;	//set the compare reg to 250 time ticks
     c30:	89 ef       	ldi	r24, 0xF9	; 249
     c32:	87 bd       	out	0x27, r24	; 39
	TCCR0A = 0b00000010; // turn on clear-on-match
     c34:	94 bd       	out	0x24, r25	; 36
	TCCR0B = 0b00000011;	// clock prescalar to 64
     c36:	23 e0       	ldi	r18, 0x03	; 3
     c38:	25 bd       	out	0x25, r18	; 37
	//uart_init();
	//stdout = stdin = stderr = &uart_str;
	//fprintf(stdout,"Starting ADC demo...\n\r");

	//initialize the current key to null
	curKey = 0;
     c3a:	10 92 b5 02 	sts	0x02B5, r1
	elapsedTime = 30;
     c3e:	8e e1       	ldi	r24, 0x1E	; 30
     c40:	90 e0       	ldi	r25, 0x00	; 0
     c42:	90 93 96 02 	sts	0x0296, r25
     c46:	80 93 95 02 	sts	0x0295, r24
	debounceTime = 30;
     c4a:	90 93 b7 02 	sts	0x02B7, r25
     c4e:	80 93 b6 02 	sts	0x02B6, r24
	autoRange = 0;
     c52:	10 92 97 02 	sts	0x0297, r1
	mode = INIT;
     c56:	10 92 a4 02 	sts	0x02A4, r1
	manPage = WELCOME;
     c5a:	10 92 bd 02 	sts	0x02BD, r1
	keyState = RELEASED;
     c5e:	10 92 9a 02 	sts	0x029A, r1
	rangeIdx = 0;
     c62:	10 92 bb 02 	sts	0x02BB, r1
	rangeIdxMod = 3;
     c66:	20 93 94 02 	sts	0x0294, r18
	frequencyRef = frequencyRanges[rangeIdx];
     c6a:	80 91 bb 02 	lds	r24, 0x02BB
     c6e:	ef e0       	ldi	r30, 0x0F	; 15
     c70:	f1 e0       	ldi	r31, 0x01	; 1
     c72:	e8 0f       	add	r30, r24
     c74:	f1 1d       	adc	r31, r1
     c76:	80 81       	ld	r24, Z
     c78:	80 93 bf 02 	sts	0x02BF, r24
	justSwitched = 0;
     c7c:	10 92 be 02 	sts	0x02BE, r1
	PORTB = ~0x01;
     c80:	8e ef       	ldi	r24, 0xFE	; 254
     c82:	85 b9       	out	0x05, r24	; 5
	InitLCD();
     c84:	0e 94 ed 05 	call	0xbda	; 0xbda <InitLCD>
	PORTB = 0xFF;
     c88:	15 b9       	out	0x05, r17	; 5
	sei();
     c8a:	78 94       	sei
}
     c8c:	1f 91       	pop	r17
     c8e:	08 95       	ret

00000c90 <main>:
}

//END HELPER FUNCTIONS*********************************************************

int main(void){
	Initialize();
     c90:	0e 94 04 06 	call	0xc08	; 0xc08 <Initialize>
	
	while(1){
	uint8_t key = curKey;
     c94:	80 91 b5 02 	lds	r24, 0x02B5
		if (key){
     c98:	88 23       	and	r24, r24
     c9a:	11 f0       	breq	.+4      	; 0xca0 <main+0x10>
			PORTB = ~key;
     c9c:	80 95       	com	r24
     c9e:	85 b9       	out	0x05, r24	; 5
		}
		if(triggerPoll) {
     ca0:	80 91 9f 02 	lds	r24, 0x029F
     ca4:	88 23       	and	r24, r24
     ca6:	31 f0       	breq	.+12     	; 0xcb4 <main+0x24>
			poll();
     ca8:	0e 94 4b 05 	call	0xa96	; 0xa96 <poll>
			Autorange();
     cac:	0e 94 f3 04 	call	0x9e6	; 0x9e6 <Autorange>
			triggerPoll = 0;
     cb0:	10 92 9f 02 	sts	0x029F, r1
		}
		if (justSwitched){
     cb4:	80 91 be 02 	lds	r24, 0x02BE
     cb8:	88 23       	and	r24, r24
     cba:	61 f3       	breq	.-40     	; 0xc94 <main+0x4>
			switch (mode){
     cbc:	80 91 a4 02 	lds	r24, 0x02A4
     cc0:	82 30       	cpi	r24, 0x02	; 2
     cc2:	09 f4       	brne	.+2      	; 0xcc6 <main+0x36>
     cc4:	7c c0       	rjmp	.+248    	; 0xdbe <main+0x12e>
     cc6:	83 30       	cpi	r24, 0x03	; 3
     cc8:	20 f4       	brcc	.+8      	; 0xcd2 <main+0x42>
     cca:	81 30       	cpi	r24, 0x01	; 1
     ccc:	09 f0       	breq	.+2      	; 0xcd0 <main+0x40>
     cce:	0b c1       	rjmp	.+534    	; 0xee6 <main+0x256>
     cd0:	07 c0       	rjmp	.+14     	; 0xce0 <main+0x50>
     cd2:	83 30       	cpi	r24, 0x03	; 3
     cd4:	09 f4       	brne	.+2      	; 0xcd8 <main+0x48>
     cd6:	a6 c0       	rjmp	.+332    	; 0xe24 <main+0x194>
     cd8:	84 30       	cpi	r24, 0x04	; 4
     cda:	09 f0       	breq	.+2      	; 0xcde <main+0x4e>
     cdc:	04 c1       	rjmp	.+520    	; 0xee6 <main+0x256>
     cde:	d7 c0       	rjmp	.+430    	; 0xe8e <main+0x1fe>
				case MAN:
					switch (manPage){
     ce0:	80 91 bd 02 	lds	r24, 0x02BD
     ce4:	83 30       	cpi	r24, 0x03	; 3
     ce6:	a1 f1       	breq	.+104    	; 0xd50 <main+0xc0>
     ce8:	84 30       	cpi	r24, 0x04	; 4
     cea:	28 f4       	brcc	.+10     	; 0xcf6 <main+0x66>
     cec:	81 30       	cpi	r24, 0x01	; 1
     cee:	d1 f0       	breq	.+52     	; 0xd24 <main+0x94>
     cf0:	82 30       	cpi	r24, 0x02	; 2
     cf2:	18 f5       	brcc	.+70     	; 0xd3a <main+0xaa>
     cf4:	0c c0       	rjmp	.+24     	; 0xd0e <main+0x7e>
     cf6:	85 30       	cpi	r24, 0x05	; 5
     cf8:	09 f4       	brne	.+2      	; 0xcfc <main+0x6c>
     cfa:	40 c0       	rjmp	.+128    	; 0xd7c <main+0xec>
     cfc:	85 30       	cpi	r24, 0x05	; 5
     cfe:	98 f1       	brcs	.+102    	; 0xd66 <main+0xd6>
     d00:	86 30       	cpi	r24, 0x06	; 6
     d02:	09 f4       	brne	.+2      	; 0xd06 <main+0x76>
     d04:	46 c0       	rjmp	.+140    	; 0xd92 <main+0x102>
     d06:	87 30       	cpi	r24, 0x07	; 7
     d08:	09 f0       	breq	.+2      	; 0xd0c <main+0x7c>
     d0a:	ed c0       	rjmp	.+474    	; 0xee6 <main+0x256>
     d0c:	4d c0       	rjmp	.+154    	; 0xda8 <main+0x118>
						case WELCOME:
							LCDclr();
     d0e:	0e 94 b4 07 	call	0xf68	; 0xf68 <LCDclr>
							CopyStringtoLCD(LCDManWelcomeTop, 0, 0);
     d12:	81 e3       	ldi	r24, 0x31	; 49
     d14:	91 e0       	ldi	r25, 0x01	; 1
     d16:	60 e0       	ldi	r22, 0x00	; 0
     d18:	40 e0       	ldi	r20, 0x00	; 0
     d1a:	0e 94 e0 07 	call	0xfc0	; 0xfc0 <CopyStringtoLCD>
							CopyStringtoLCD(LCDManWelcomeBot, 0, 1);
     d1e:	8c e3       	ldi	r24, 0x3C	; 60
     d20:	91 e0       	ldi	r25, 0x01	; 1
     d22:	c9 c0       	rjmp	.+402    	; 0xeb6 <main+0x226>
							break;
						case NAVIGATION_1:
							LCDclr();
     d24:	0e 94 b4 07 	call	0xf68	; 0xf68 <LCDclr>
							CopyStringtoLCD(LCDNavigation1Top, 0, 0);
     d28:	8b e4       	ldi	r24, 0x4B	; 75
     d2a:	91 e0       	ldi	r25, 0x01	; 1
     d2c:	60 e0       	ldi	r22, 0x00	; 0
     d2e:	40 e0       	ldi	r20, 0x00	; 0
     d30:	0e 94 e0 07 	call	0xfc0	; 0xfc0 <CopyStringtoLCD>
					 		CopyStringtoLCD(LCDNavigation1Bot, 0, 1);
     d34:	8d e5       	ldi	r24, 0x5D	; 93
     d36:	91 e0       	ldi	r25, 0x01	; 1
     d38:	be c0       	rjmp	.+380    	; 0xeb6 <main+0x226>
							break;
						case NAVIGATION_2:
							LCDclr();
     d3a:	0e 94 b4 07 	call	0xf68	; 0xf68 <LCDclr>
							CopyStringtoLCD(LCDNavigation2Top, 0, 0);
     d3e:	8f e6       	ldi	r24, 0x6F	; 111
     d40:	91 e0       	ldi	r25, 0x01	; 1
     d42:	60 e0       	ldi	r22, 0x00	; 0
     d44:	40 e0       	ldi	r20, 0x00	; 0
     d46:	0e 94 e0 07 	call	0xfc0	; 0xfc0 <CopyStringtoLCD>
							CopyStringtoLCD(LCDNavigation2Bot, 0, 1);
     d4a:	80 e8       	ldi	r24, 0x80	; 128
     d4c:	91 e0       	ldi	r25, 0x01	; 1
     d4e:	b3 c0       	rjmp	.+358    	; 0xeb6 <main+0x226>
							break;
					 	case VOLT_MAN:
							LCDclr();
     d50:	0e 94 b4 07 	call	0xf68	; 0xf68 <LCDclr>
							CopyStringtoLCD(LCDVoltManTop, 0, 0);
     d54:	8f e8       	ldi	r24, 0x8F	; 143
     d56:	91 e0       	ldi	r25, 0x01	; 1
     d58:	60 e0       	ldi	r22, 0x00	; 0
     d5a:	40 e0       	ldi	r20, 0x00	; 0
     d5c:	0e 94 e0 07 	call	0xfc0	; 0xfc0 <CopyStringtoLCD>
							CopyStringtoLCD(LCDVoltManBot, 0, 1);
     d60:	80 ea       	ldi	r24, 0xA0	; 160
     d62:	91 e0       	ldi	r25, 0x01	; 1
     d64:	a8 c0       	rjmp	.+336    	; 0xeb6 <main+0x226>
							break;
						case OHM_MAN:
							LCDclr();
     d66:	0e 94 b4 07 	call	0xf68	; 0xf68 <LCDclr>
							CopyStringtoLCD(LCDOhmManTop, 0, 0);
     d6a:	8b ea       	ldi	r24, 0xAB	; 171
     d6c:	91 e0       	ldi	r25, 0x01	; 1
     d6e:	60 e0       	ldi	r22, 0x00	; 0
     d70:	40 e0       	ldi	r20, 0x00	; 0
     d72:	0e 94 e0 07 	call	0xfc0	; 0xfc0 <CopyStringtoLCD>
							CopyStringtoLCD(LCDOhmManBot, 0, 1);
     d76:	8b eb       	ldi	r24, 0xBB	; 187
     d78:	91 e0       	ldi	r25, 0x01	; 1
     d7a:	9d c0       	rjmp	.+314    	; 0xeb6 <main+0x226>
							break;
						case FREQ_MAN:
							LCDclr();
     d7c:	0e 94 b4 07 	call	0xf68	; 0xf68 <LCDclr>
							CopyStringtoLCD(LCDFreqManTop, 0, 0);
     d80:	85 ec       	ldi	r24, 0xC5	; 197
     d82:	91 e0       	ldi	r25, 0x01	; 1
     d84:	60 e0       	ldi	r22, 0x00	; 0
     d86:	40 e0       	ldi	r20, 0x00	; 0
     d88:	0e 94 e0 07 	call	0xfc0	; 0xfc0 <CopyStringtoLCD>
							CopyStringtoLCD(LCDFreqManBot, 0, 1);
     d8c:	86 ed       	ldi	r24, 0xD6	; 214
     d8e:	91 e0       	ldi	r25, 0x01	; 1
     d90:	92 c0       	rjmp	.+292    	; 0xeb6 <main+0x226>
							break;
						case AUTORANGE_MAN_1:
							LCDclr();
     d92:	0e 94 b4 07 	call	0xf68	; 0xf68 <LCDclr>
							CopyStringtoLCD(LCDAutorangeMan1Top, 0, 0);
     d96:	83 ee       	ldi	r24, 0xE3	; 227
     d98:	91 e0       	ldi	r25, 0x01	; 1
     d9a:	60 e0       	ldi	r22, 0x00	; 0
     d9c:	40 e0       	ldi	r20, 0x00	; 0
     d9e:	0e 94 e0 07 	call	0xfc0	; 0xfc0 <CopyStringtoLCD>
							CopyStringtoLCD(LCDAutorangeMan1Bot, 0, 1);
     da2:	80 ef       	ldi	r24, 0xF0	; 240
     da4:	91 e0       	ldi	r25, 0x01	; 1
     da6:	87 c0       	rjmp	.+270    	; 0xeb6 <main+0x226>
							break;
						case AUTORANGE_MAN_2:
							LCDclr();
     da8:	0e 94 b4 07 	call	0xf68	; 0xf68 <LCDclr>
							CopyStringtoLCD(LCDAutorangeMan2Top, 0, 0);
     dac:	8b ef       	ldi	r24, 0xFB	; 251
     dae:	91 e0       	ldi	r25, 0x01	; 1
     db0:	60 e0       	ldi	r22, 0x00	; 0
     db2:	40 e0       	ldi	r20, 0x00	; 0
     db4:	0e 94 e0 07 	call	0xfc0	; 0xfc0 <CopyStringtoLCD>
							CopyStringtoLCD(LCDAutorangeMan2Bot, 0, 1);
     db8:	88 e0       	ldi	r24, 0x08	; 8
     dba:	92 e0       	ldi	r25, 0x02	; 2
     dbc:	7c c0       	rjmp	.+248    	; 0xeb6 <main+0x226>
							break;
					}
						break;

				case VOLTMETER:
					LCDclr();
     dbe:	0e 94 b4 07 	call	0xf68	; 0xf68 <LCDclr>
				 	CopyStringtoLCD(LCDMode, 0, 0);
     dc2:	88 e0       	ldi	r24, 0x08	; 8
     dc4:	91 e0       	ldi	r25, 0x01	; 1
     dc6:	60 e0       	ldi	r22, 0x00	; 0
     dc8:	40 e0       	ldi	r20, 0x00	; 0
     dca:	0e 94 e0 07 	call	0xfc0	; 0xfc0 <CopyStringtoLCD>
					CopyStringtoLCD(LCDVolt, MODE_START, 0);
     dce:	80 e1       	ldi	r24, 0x10	; 16
     dd0:	91 e0       	ldi	r25, 0x01	; 1
     dd2:	66 e0       	ldi	r22, 0x06	; 6
     dd4:	40 e0       	ldi	r20, 0x00	; 0
     dd6:	0e 94 e0 07 	call	0xfc0	; 0xfc0 <CopyStringtoLCD>
					if (autoRange){
     dda:	80 91 97 02 	lds	r24, 0x0297
     dde:	88 23       	and	r24, r24
     de0:	09 f0       	breq	.+2      	; 0xde4 <main+0x154>
     de2:	67 c0       	rjmp	.+206    	; 0xeb2 <main+0x222>
						CopyStringtoLCD(LCDAutorangeOn, 0, 1);
					}
					else{
						CopyStringtoLCD(LCDRange, 0, 1);
     de4:	86 ea       	ldi	r24, 0xA6	; 166
     de6:	90 e0       	ldi	r25, 0x00	; 0
     de8:	60 e0       	ldi	r22, 0x00	; 0
     dea:	41 e0       	ldi	r20, 0x01	; 1
     dec:	0e 94 e0 07 	call	0xfc0	; 0xfc0 <CopyStringtoLCD>
						switch (rangeIdx){
     df0:	80 91 bb 02 	lds	r24, 0x02BB
     df4:	81 30       	cpi	r24, 0x01	; 1
     df6:	41 f0       	breq	.+16     	; 0xe08 <main+0x178>
     df8:	81 30       	cpi	r24, 0x01	; 1
     dfa:	18 f0       	brcs	.+6      	; 0xe02 <main+0x172>
     dfc:	82 30       	cpi	r24, 0x02	; 2
     dfe:	69 f4       	brne	.+26     	; 0xe1a <main+0x18a>
     e00:	06 c0       	rjmp	.+12     	; 0xe0e <main+0x17e>
							case 0:
								CopyStringtoLCD(LCD5Volts, RANGE_START, 1);
     e02:	8e eb       	ldi	r24, 0xBE	; 190
     e04:	90 e0       	ldi	r25, 0x00	; 0
     e06:	05 c0       	rjmp	.+10     	; 0xe12 <main+0x182>
								break;
							case 1:
								CopyStringtoLCD(LCD256Volts, RANGE_START, 1);
     e08:	87 ec       	ldi	r24, 0xC7	; 199
     e0a:	90 e0       	ldi	r25, 0x00	; 0
     e0c:	02 c0       	rjmp	.+4      	; 0xe12 <main+0x182>
								break;
							case 2:
								CopyStringtoLCD(LCD11Volts, RANGE_START, 1);
     e0e:	83 ed       	ldi	r24, 0xD3	; 211
     e10:	90 e0       	ldi	r25, 0x00	; 0
     e12:	67 e0       	ldi	r22, 0x07	; 7
     e14:	41 e0       	ldi	r20, 0x01	; 1
     e16:	0e 94 e0 07 	call	0xfc0	; 0xfc0 <CopyStringtoLCD>
								break;
						}
						setVref(rangeIdx);
     e1a:	80 91 bb 02 	lds	r24, 0x02BB
     e1e:	0e 94 b5 04 	call	0x96a	; 0x96a <setVref>
     e22:	61 c0       	rjmp	.+194    	; 0xee6 <main+0x256>
					}	
					break;

				case OHMMETER:
					LCDclr();
     e24:	0e 94 b4 07 	call	0xf68	; 0xf68 <LCDclr>
					CopyStringtoLCD(LCDMode, 0, 0);
     e28:	88 e0       	ldi	r24, 0x08	; 8
     e2a:	91 e0       	ldi	r25, 0x01	; 1
     e2c:	60 e0       	ldi	r22, 0x00	; 0
     e2e:	40 e0       	ldi	r20, 0x00	; 0
     e30:	0e 94 e0 07 	call	0xfc0	; 0xfc0 <CopyStringtoLCD>
					CopyStringtoLCD(LCDOhm, MODE_START, 0);
     e34:	8c e1       	ldi	r24, 0x1C	; 28
     e36:	91 e0       	ldi	r25, 0x01	; 1
     e38:	66 e0       	ldi	r22, 0x06	; 6
     e3a:	40 e0       	ldi	r20, 0x00	; 0
     e3c:	0e 94 e0 07 	call	0xfc0	; 0xfc0 <CopyStringtoLCD>
					if (autoRange){
     e40:	80 91 97 02 	lds	r24, 0x0297
     e44:	88 23       	and	r24, r24
     e46:	a9 f5       	brne	.+106    	; 0xeb2 <main+0x222>
						CopyStringtoLCD(LCDAutorangeOn, 0, 1);
					}
					else{
						CopyStringtoLCD(LCDRange, 0, 1);
     e48:	86 ea       	ldi	r24, 0xA6	; 166
     e4a:	90 e0       	ldi	r25, 0x00	; 0
     e4c:	60 e0       	ldi	r22, 0x00	; 0
     e4e:	41 e0       	ldi	r20, 0x01	; 1
     e50:	0e 94 e0 07 	call	0xfc0	; 0xfc0 <CopyStringtoLCD>
						switch (rangeIdx){
     e54:	80 91 bb 02 	lds	r24, 0x02BB
     e58:	81 30       	cpi	r24, 0x01	; 1
     e5a:	41 f0       	breq	.+16     	; 0xe6c <main+0x1dc>
     e5c:	81 30       	cpi	r24, 0x01	; 1
     e5e:	18 f0       	brcs	.+6      	; 0xe66 <main+0x1d6>
     e60:	82 30       	cpi	r24, 0x02	; 2
     e62:	69 f4       	brne	.+26     	; 0xe7e <main+0x1ee>
     e64:	06 c0       	rjmp	.+12     	; 0xe72 <main+0x1e2>
							case 0:
								CopyStringtoLCD(LCD100kOhm, RANGE_START, 1);
     e66:	8f ee       	ldi	r24, 0xEF	; 239
     e68:	90 e0       	ldi	r25, 0x00	; 0
     e6a:	05 c0       	rjmp	.+10     	; 0xe76 <main+0x1e6>
								break;
							case 1:
								CopyStringtoLCD(LCD10kOhm, RANGE_START, 1);
     e6c:	86 ee       	ldi	r24, 0xE6	; 230
     e6e:	90 e0       	ldi	r25, 0x00	; 0
     e70:	02 c0       	rjmp	.+4      	; 0xe76 <main+0x1e6>
								break;
							case 2:
								CopyStringtoLCD(LCD1kOhm, RANGE_START, 1);
     e72:	8e ed       	ldi	r24, 0xDE	; 222
     e74:	90 e0       	ldi	r25, 0x00	; 0
     e76:	67 e0       	ldi	r22, 0x07	; 7
     e78:	41 e0       	ldi	r20, 0x01	; 1
     e7a:	0e 94 e0 07 	call	0xfc0	; 0xfc0 <CopyStringtoLCD>
								break;
						}
						setVref(0); // 5v reference
     e7e:	80 e0       	ldi	r24, 0x00	; 0
     e80:	0e 94 b5 04 	call	0x96a	; 0x96a <setVref>
						setOref(rangeIdx);
     e84:	80 91 bb 02 	lds	r24, 0x02BB
     e88:	0e 94 d8 04 	call	0x9b0	; 0x9b0 <setOref>
     e8c:	2c c0       	rjmp	.+88     	; 0xee6 <main+0x256>
					}
					break;

				case FREQMETER:
					LCDclr();
     e8e:	0e 94 b4 07 	call	0xf68	; 0xf68 <LCDclr>
					CopyStringtoLCD(LCDMode, 0, 0);
     e92:	88 e0       	ldi	r24, 0x08	; 8
     e94:	91 e0       	ldi	r25, 0x01	; 1
     e96:	60 e0       	ldi	r22, 0x00	; 0
     e98:	40 e0       	ldi	r20, 0x00	; 0
     e9a:	0e 94 e0 07 	call	0xfc0	; 0xfc0 <CopyStringtoLCD>
					CopyStringtoLCD(LCDFreq, MODE_START, 0);
     e9e:	86 e2       	ldi	r24, 0x26	; 38
     ea0:	91 e0       	ldi	r25, 0x01	; 1
     ea2:	66 e0       	ldi	r22, 0x06	; 6
     ea4:	40 e0       	ldi	r20, 0x00	; 0
     ea6:	0e 94 e0 07 	call	0xfc0	; 0xfc0 <CopyStringtoLCD>
					if (autoRange){
     eaa:	80 91 97 02 	lds	r24, 0x0297
     eae:	88 23       	and	r24, r24
     eb0:	21 f0       	breq	.+8      	; 0xeba <main+0x22a>
						CopyStringtoLCD(LCDAutorangeOn, 0, 1);
     eb2:	8f ea       	ldi	r24, 0xAF	; 175
     eb4:	90 e0       	ldi	r25, 0x00	; 0
     eb6:	60 e0       	ldi	r22, 0x00	; 0
     eb8:	13 c0       	rjmp	.+38     	; 0xee0 <main+0x250>
					}
					else{
						CopyStringtoLCD(LCDRange, 0, 1);
     eba:	86 ea       	ldi	r24, 0xA6	; 166
     ebc:	90 e0       	ldi	r25, 0x00	; 0
     ebe:	60 e0       	ldi	r22, 0x00	; 0
     ec0:	41 e0       	ldi	r20, 0x01	; 1
     ec2:	0e 94 e0 07 	call	0xfc0	; 0xfc0 <CopyStringtoLCD>
						switch (rangeIdx){
     ec6:	80 91 bb 02 	lds	r24, 0x02BB
     eca:	88 23       	and	r24, r24
     ecc:	19 f0       	breq	.+6      	; 0xed4 <main+0x244>
     ece:	81 30       	cpi	r24, 0x01	; 1
     ed0:	51 f4       	brne	.+20     	; 0xee6 <main+0x256>
     ed2:	03 c0       	rjmp	.+6      	; 0xeda <main+0x24a>
							case 0:
								CopyStringtoLCD(LCD10kHz, RANGE_START, 1);
     ed4:	80 e0       	ldi	r24, 0x00	; 0
     ed6:	91 e0       	ldi	r25, 0x01	; 1
     ed8:	02 c0       	rjmp	.+4      	; 0xede <main+0x24e>
								break;
							case 1:
								CopyStringtoLCD(LCD1kHz, RANGE_START, 1);
     eda:	89 ef       	ldi	r24, 0xF9	; 249
     edc:	90 e0       	ldi	r25, 0x00	; 0
     ede:	67 e0       	ldi	r22, 0x07	; 7
     ee0:	41 e0       	ldi	r20, 0x01	; 1
     ee2:	0e 94 e0 07 	call	0xfc0	; 0xfc0 <CopyStringtoLCD>
						}
					}
					break;
			}

			justSwitched = 0;
     ee6:	10 92 be 02 	sts	0x02BE, r1
     eea:	d4 ce       	rjmp	.-600    	; 0xc94 <main+0x4>

00000eec <LCDsendChar>:
void LCDsendChar(uint8_t ch)		//Sends Char to LCD
{

#ifdef LCD_4bit
	//4 bit part
	LDP=(ch&0b11110000);
     eec:	28 2f       	mov	r18, r24
     eee:	20 7f       	andi	r18, 0xF0	; 240
     ef0:	28 b9       	out	0x08, r18	; 8
	LCP|=1<<LCD_RS;
     ef2:	40 9a       	sbi	0x08, 0	; 8
	LCP|=1<<LCD_E;		
     ef4:	42 9a       	sbi	0x08, 2	; 8
    milliseconds can be achieved.
 */
void
_delay_loop_2(uint16_t __count)
{
	__asm__ volatile (
     ef6:	2a ef       	ldi	r18, 0xFA	; 250
     ef8:	30 e0       	ldi	r19, 0x00	; 0
     efa:	f9 01       	movw	r30, r18
     efc:	31 97       	sbiw	r30, 0x01	; 1
     efe:	f1 f7       	brne	.-4      	; 0xefc <LCDsendChar+0x10>
	_delay_ms(1);
	LCP&=~(1<<LCD_E);	
     f00:	42 98       	cbi	0x08, 2	; 8
	LCP&=~(1<<LCD_RS);
     f02:	40 98       	cbi	0x08, 0	; 8
     f04:	f9 01       	movw	r30, r18
     f06:	31 97       	sbiw	r30, 0x01	; 1
     f08:	f1 f7       	brne	.-4      	; 0xf06 <LCDsendChar+0x1a>
	_delay_ms(1);
	LDP=((ch&0b00001111)<<4);
     f0a:	90 e0       	ldi	r25, 0x00	; 0
     f0c:	44 e0       	ldi	r20, 0x04	; 4
     f0e:	88 0f       	add	r24, r24
     f10:	99 1f       	adc	r25, r25
     f12:	4a 95       	dec	r20
     f14:	e1 f7       	brne	.-8      	; 0xf0e <LCDsendChar+0x22>
     f16:	88 b9       	out	0x08, r24	; 8
	LCP|=1<<LCD_RS;
     f18:	40 9a       	sbi	0x08, 0	; 8
	LCP|=1<<LCD_E;		
     f1a:	42 9a       	sbi	0x08, 2	; 8
     f1c:	c9 01       	movw	r24, r18
     f1e:	01 97       	sbiw	r24, 0x01	; 1
     f20:	f1 f7       	brne	.-4      	; 0xf1e <LCDsendChar+0x32>
	_delay_ms(1);
	LCP&=~(1<<LCD_E);	
     f22:	42 98       	cbi	0x08, 2	; 8
	LCP&=~(1<<LCD_RS);
     f24:	40 98       	cbi	0x08, 0	; 8
     f26:	c9 01       	movw	r24, r18
     f28:	01 97       	sbiw	r24, 0x01	; 1
     f2a:	f1 f7       	brne	.-4      	; 0xf28 <LCDsendChar+0x3c>
	_delay_ms(1);
	LCP&=~(1<<LCD_E);	
	LCP&=~(1<<LCD_RS);
	_delay_ms(1);
#endif
}
     f2c:	08 95       	ret

00000f2e <LCDsendCommand>:
void LCDsendCommand(uint8_t cmd)	//Sends Command to LCD
{
#ifdef LCD_4bit	
	//4 bit part
	LDP=(cmd&0b11110000);
     f2e:	28 2f       	mov	r18, r24
     f30:	20 7f       	andi	r18, 0xF0	; 240
     f32:	28 b9       	out	0x08, r18	; 8
	LCP|=1<<LCD_E;		
     f34:	42 9a       	sbi	0x08, 2	; 8
     f36:	2a ef       	ldi	r18, 0xFA	; 250
     f38:	30 e0       	ldi	r19, 0x00	; 0
     f3a:	f9 01       	movw	r30, r18
     f3c:	31 97       	sbiw	r30, 0x01	; 1
     f3e:	f1 f7       	brne	.-4      	; 0xf3c <LCDsendCommand+0xe>
	_delay_ms(1);
	LCP&=~(1<<LCD_E);
     f40:	42 98       	cbi	0x08, 2	; 8
     f42:	f9 01       	movw	r30, r18
     f44:	31 97       	sbiw	r30, 0x01	; 1
     f46:	f1 f7       	brne	.-4      	; 0xf44 <LCDsendCommand+0x16>
	_delay_ms(1);
	LDP=((cmd&0b00001111)<<4);	
     f48:	90 e0       	ldi	r25, 0x00	; 0
     f4a:	54 e0       	ldi	r21, 0x04	; 4
     f4c:	88 0f       	add	r24, r24
     f4e:	99 1f       	adc	r25, r25
     f50:	5a 95       	dec	r21
     f52:	e1 f7       	brne	.-8      	; 0xf4c <LCDsendCommand+0x1e>
     f54:	88 b9       	out	0x08, r24	; 8
	LCP|=1<<LCD_E;		
     f56:	42 9a       	sbi	0x08, 2	; 8
     f58:	c9 01       	movw	r24, r18
     f5a:	01 97       	sbiw	r24, 0x01	; 1
     f5c:	f1 f7       	brne	.-4      	; 0xf5a <LCDsendCommand+0x2c>
	_delay_ms(1);
	LCP&=~(1<<LCD_E);
     f5e:	42 98       	cbi	0x08, 2	; 8
     f60:	c9 01       	movw	r24, r18
     f62:	01 97       	sbiw	r24, 0x01	; 1
     f64:	f1 f7       	brne	.-4      	; 0xf62 <LCDsendCommand+0x34>
	LCP|=1<<LCD_E;		
	_delay_ms(1);
	LCP&=~(1<<LCD_E);
	_delay_ms(1);	
#endif
}
     f66:	08 95       	ret

00000f68 <LCDclr>:

#endif
}			
void LCDclr(void)				//Clears LCD
{
	LCDsendCommand(1<<LCD_CLR);
     f68:	81 e0       	ldi	r24, 0x01	; 1
     f6a:	0e 94 97 07 	call	0xf2e	; 0xf2e <LCDsendCommand>
}
     f6e:	08 95       	ret

00000f70 <LCDhome>:
void LCDhome(void)			//LCD cursor home
{
	LCDsendCommand(1<<LCD_HOME);
     f70:	82 e0       	ldi	r24, 0x02	; 2
     f72:	0e 94 97 07 	call	0xf2e	; 0xf2e <LCDsendCommand>
}
     f76:	08 95       	ret

00000f78 <LCDstring>:
void LCDstring(uint8_t* data, uint8_t nBytes)	//Outputs string to LCD
{
     f78:	0f 93       	push	r16
     f7a:	1f 93       	push	r17
     f7c:	cf 93       	push	r28
     f7e:	df 93       	push	r29
     f80:	06 2f       	mov	r16, r22
register uint8_t i;

	// check to make sure we have a good pointer
	if (!data) return;
     f82:	00 97       	sbiw	r24, 0x00	; 0
     f84:	49 f0       	breq	.+18     	; 0xf98 <LCDstring+0x20>
     f86:	ec 01       	movw	r28, r24
     f88:	10 e0       	ldi	r17, 0x00	; 0
     f8a:	04 c0       	rjmp	.+8      	; 0xf94 <LCDstring+0x1c>

	// print data
	for(i=0; i<nBytes; i++)
	{
		LCDsendChar(data[i]);
     f8c:	89 91       	ld	r24, Y+
     f8e:	0e 94 76 07 	call	0xeec	; 0xeec <LCDsendChar>

	// check to make sure we have a good pointer
	if (!data) return;

	// print data
	for(i=0; i<nBytes; i++)
     f92:	1f 5f       	subi	r17, 0xFF	; 255
     f94:	10 17       	cp	r17, r16
     f96:	d0 f3       	brcs	.-12     	; 0xf8c <LCDstring+0x14>
	{
		LCDsendChar(data[i]);
	}
}
     f98:	df 91       	pop	r29
     f9a:	cf 91       	pop	r28
     f9c:	1f 91       	pop	r17
     f9e:	0f 91       	pop	r16
     fa0:	08 95       	ret

00000fa2 <LCDGotoXY>:
void LCDGotoXY(uint8_t x, uint8_t y)	//Cursor to X Y position
{
	register uint8_t DDRAMAddr;
	// remap lines into proper order
	switch(y)
     fa2:	62 30       	cpi	r22, 0x02	; 2
     fa4:	31 f0       	breq	.+12     	; 0xfb2 <LCDGotoXY+0x10>
     fa6:	63 30       	cpi	r22, 0x03	; 3
     fa8:	31 f0       	breq	.+12     	; 0xfb6 <LCDGotoXY+0x14>
     faa:	61 30       	cpi	r22, 0x01	; 1
     fac:	29 f4       	brne	.+10     	; 0xfb8 <LCDGotoXY+0x16>
	{
	case 0: DDRAMAddr = LCD_LINE0_DDRAMADDR+x; break;
	case 1: DDRAMAddr = LCD_LINE1_DDRAMADDR+x; break;
     fae:	80 5c       	subi	r24, 0xC0	; 192
     fb0:	03 c0       	rjmp	.+6      	; 0xfb8 <LCDGotoXY+0x16>
	case 2: DDRAMAddr = LCD_LINE2_DDRAMADDR+x; break;
     fb2:	8c 5e       	subi	r24, 0xEC	; 236
     fb4:	01 c0       	rjmp	.+2      	; 0xfb8 <LCDGotoXY+0x16>
	case 3: DDRAMAddr = LCD_LINE3_DDRAMADDR+x; break;
     fb6:	8c 5a       	subi	r24, 0xAC	; 172
	default: DDRAMAddr = LCD_LINE0_DDRAMADDR+x;
	}
	// set data address
	LCDsendCommand(1<<LCD_DDRAM | DDRAMAddr);
     fb8:	80 68       	ori	r24, 0x80	; 128
     fba:	0e 94 97 07 	call	0xf2e	; 0xf2e <LCDsendCommand>
	
}
     fbe:	08 95       	ret

00000fc0 <CopyStringtoLCD>:
//Copies string from flash memory to LCD at x y position
//const uint8_t welcomeln1[] PROGMEM="AVR LCD DEMO\0";
//CopyStringtoLCD(welcomeln1, 3, 1);	
void CopyStringtoLCD(const uint8_t *FlashLoc, uint8_t x, uint8_t y)
{
     fc0:	1f 93       	push	r17
     fc2:	cf 93       	push	r28
     fc4:	df 93       	push	r29
     fc6:	ec 01       	movw	r28, r24
     fc8:	86 2f       	mov	r24, r22
	uint8_t i;
	LCDGotoXY(x,y);
     fca:	64 2f       	mov	r22, r20
     fcc:	0e 94 d1 07 	call	0xfa2	; 0xfa2 <LCDGotoXY>
     fd0:	10 e0       	ldi	r17, 0x00	; 0
     fd2:	03 c0       	rjmp	.+6      	; 0xfda <CopyStringtoLCD+0x1a>
	for(i=0;(uint8_t)pgm_read_byte(&FlashLoc[i]);i++)
	{
		LCDsendChar((uint8_t)pgm_read_byte(&FlashLoc[i]));
     fd4:	0e 94 76 07 	call	0xeec	; 0xeec <LCDsendChar>
//CopyStringtoLCD(welcomeln1, 3, 1);	
void CopyStringtoLCD(const uint8_t *FlashLoc, uint8_t x, uint8_t y)
{
	uint8_t i;
	LCDGotoXY(x,y);
	for(i=0;(uint8_t)pgm_read_byte(&FlashLoc[i]);i++)
     fd8:	1f 5f       	subi	r17, 0xFF	; 255
     fda:	fe 01       	movw	r30, r28
     fdc:	e1 0f       	add	r30, r17
     fde:	f1 1d       	adc	r31, r1
     fe0:	84 91       	lpm	r24, Z+
     fe2:	88 23       	and	r24, r24
     fe4:	b9 f7       	brne	.-18     	; 0xfd4 <CopyStringtoLCD+0x14>
	{
		LCDsendChar((uint8_t)pgm_read_byte(&FlashLoc[i]));
	}
}
     fe6:	df 91       	pop	r29
     fe8:	cf 91       	pop	r28
     fea:	1f 91       	pop	r17
     fec:	08 95       	ret

00000fee <LCDdefinechar>:
0b00000000,
0b00000000
};
LCDdefinechar(backslash,0);
*/
void LCDdefinechar(const uint8_t *pc,uint8_t char_code){
     fee:	ef 92       	push	r14
     ff0:	ff 92       	push	r15
     ff2:	0f 93       	push	r16
     ff4:	1f 93       	push	r17
     ff6:	cf 93       	push	r28
     ff8:	df 93       	push	r29
     ffa:	7c 01       	movw	r14, r24
     ffc:	16 2f       	mov	r17, r22
	uint8_t a, pcc;
	uint16_t i;
	a=(char_code<<3)|0x40;
     ffe:	11 0f       	add	r17, r17
    1000:	11 0f       	add	r17, r17
    1002:	11 0f       	add	r17, r17
    1004:	10 64       	ori	r17, 0x40	; 64
    1006:	c0 e0       	ldi	r28, 0x00	; 0
    1008:	d0 e0       	ldi	r29, 0x00	; 0
	for (i=0; i<8; i++){
		pcc=pgm_read_byte(&pc[i]);
    100a:	f7 01       	movw	r30, r14
    100c:	ec 0f       	add	r30, r28
    100e:	fd 1f       	adc	r31, r29
    1010:	04 91       	lpm	r16, Z+
		LCDsendCommand(a++);
    1012:	81 2f       	mov	r24, r17
    1014:	8c 0f       	add	r24, r28
    1016:	0e 94 97 07 	call	0xf2e	; 0xf2e <LCDsendCommand>
		LCDsendChar(pcc);
    101a:	80 2f       	mov	r24, r16
    101c:	0e 94 76 07 	call	0xeec	; 0xeec <LCDsendChar>
*/
void LCDdefinechar(const uint8_t *pc,uint8_t char_code){
	uint8_t a, pcc;
	uint16_t i;
	a=(char_code<<3)|0x40;
	for (i=0; i<8; i++){
    1020:	21 96       	adiw	r28, 0x01	; 1
    1022:	c8 30       	cpi	r28, 0x08	; 8
    1024:	d1 05       	cpc	r29, r1
    1026:	89 f7       	brne	.-30     	; 0x100a <LCDdefinechar+0x1c>
		pcc=pgm_read_byte(&pc[i]);
		LCDsendCommand(a++);
		LCDsendChar(pcc);
		}
}
    1028:	df 91       	pop	r29
    102a:	cf 91       	pop	r28
    102c:	1f 91       	pop	r17
    102e:	0f 91       	pop	r16
    1030:	ff 90       	pop	r15
    1032:	ef 90       	pop	r14
    1034:	08 95       	ret

00001036 <LCDinit>:
	LCP&=~(1<<LCD_E);
	_delay_ms(1);	
#endif
}
void LCDinit(void)//Initializes LCD
{
    1036:	1f 93       	push	r17
    1038:	cf 93       	push	r28
    103a:	df 93       	push	r29
    103c:	86 ea       	ldi	r24, 0xA6	; 166
    103e:	9e e0       	ldi	r25, 0x0E	; 14
    1040:	01 97       	sbiw	r24, 0x01	; 1
    1042:	f1 f7       	brne	.-4      	; 0x1040 <LCDinit+0xa>
#ifdef LCD_4bit	
	//4 bit part
	_delay_ms(15);
	LDP=0x00;
    1044:	18 b8       	out	0x08, r1	; 8
	LCP=0x00;
    1046:	18 b8       	out	0x08, r1	; 8
	LDDR|=1<<LCD_D7|1<<LCD_D6|1<<LCD_D5|1<<LCD_D4;
    1048:	87 b1       	in	r24, 0x07	; 7
    104a:	80 6f       	ori	r24, 0xF0	; 240
    104c:	87 b9       	out	0x07, r24	; 7
	LCDR|=1<<LCD_E|1<<LCD_RW|1<<LCD_RS;
    104e:	87 b1       	in	r24, 0x07	; 7
    1050:	87 60       	ori	r24, 0x07	; 7
    1052:	87 b9       	out	0x07, r24	; 7
   //---------one------
	LDP=0<<LCD_D7|0<<LCD_D6|1<<LCD_D5|1<<LCD_D4; //4 bit mode
    1054:	80 e3       	ldi	r24, 0x30	; 48
    1056:	88 b9       	out	0x08, r24	; 8
	LCP|=1<<LCD_E|0<<LCD_RW|0<<LCD_RS;		
    1058:	42 9a       	sbi	0x08, 2	; 8
    105a:	2a ef       	ldi	r18, 0xFA	; 250
    105c:	30 e0       	ldi	r19, 0x00	; 0
    105e:	f9 01       	movw	r30, r18
    1060:	31 97       	sbiw	r30, 0x01	; 1
    1062:	f1 f7       	brne	.-4      	; 0x1060 <LCDinit+0x2a>
	_delay_ms(1);
	LCP&=~(1<<LCD_E);
    1064:	42 98       	cbi	0x08, 2	; 8
    1066:	f9 01       	movw	r30, r18
    1068:	31 97       	sbiw	r30, 0x01	; 1
    106a:	f1 f7       	brne	.-4      	; 0x1068 <LCDinit+0x32>
	_delay_ms(1);
	//-----------two-----------
	LDP=0<<LCD_D7|0<<LCD_D6|1<<LCD_D5|1<<LCD_D4; //4 bit mode
    106c:	88 b9       	out	0x08, r24	; 8
	LCP|=1<<LCD_E|0<<LCD_RW|0<<LCD_RS;		
    106e:	42 9a       	sbi	0x08, 2	; 8
    1070:	c9 01       	movw	r24, r18
    1072:	01 97       	sbiw	r24, 0x01	; 1
    1074:	f1 f7       	brne	.-4      	; 0x1072 <LCDinit+0x3c>
	_delay_ms(1);
	LCP&=~(1<<LCD_E);
    1076:	42 98       	cbi	0x08, 2	; 8
    1078:	c9 01       	movw	r24, r18
    107a:	01 97       	sbiw	r24, 0x01	; 1
    107c:	f1 f7       	brne	.-4      	; 0x107a <LCDinit+0x44>
	_delay_ms(1);
	//-------three-------------
	LDP=0<<LCD_D7|0<<LCD_D6|1<<LCD_D5|0<<LCD_D4; //4 bit mode
    107e:	80 e2       	ldi	r24, 0x20	; 32
    1080:	88 b9       	out	0x08, r24	; 8
	LCP|=1<<LCD_E|0<<LCD_RW|0<<LCD_RS;		
    1082:	42 9a       	sbi	0x08, 2	; 8
    1084:	c9 01       	movw	r24, r18
    1086:	01 97       	sbiw	r24, 0x01	; 1
    1088:	f1 f7       	brne	.-4      	; 0x1086 <LCDinit+0x50>
	_delay_ms(1);
	LCP&=~(1<<LCD_E);
    108a:	42 98       	cbi	0x08, 2	; 8
    108c:	c9 01       	movw	r24, r18
    108e:	01 97       	sbiw	r24, 0x01	; 1
    1090:	f1 f7       	brne	.-4      	; 0x108e <LCDinit+0x58>
	_delay_ms(1);
	//--------4 bit--dual line---------------
	LCDsendCommand(0b00101000);
    1092:	88 e2       	ldi	r24, 0x28	; 40
    1094:	0e 94 97 07 	call	0xf2e	; 0xf2e <LCDsendCommand>
   //-----increment address, invisible cursor shift------
	LCDsendCommand(0b00001100);
    1098:	8c e0       	ldi	r24, 0x0C	; 12
    109a:	0e 94 97 07 	call	0xf2e	; 0xf2e <LCDsendCommand>
    109e:	c9 e1       	ldi	r28, 0x19	; 25
    10a0:	d2 e0       	ldi	r29, 0x02	; 2
    10a2:	60 e0       	ldi	r22, 0x00	; 0
		//init 8 custom chars
	uint8_t ch=0, chn=0;
	while(ch<64)
	{
		LCDdefinechar((LcdCustomChar+ch),chn++);
    10a4:	16 2f       	mov	r17, r22
    10a6:	1f 5f       	subi	r17, 0xFF	; 255
    10a8:	ce 01       	movw	r24, r28
    10aa:	0e 94 f7 07 	call	0xfee	; 0xfee <LCDdefinechar>
    10ae:	28 96       	adiw	r28, 0x08	; 8
    10b0:	61 2f       	mov	r22, r17
	LCDsendCommand(0b00101000);
   //-----increment address, invisible cursor shift------
	LCDsendCommand(0b00001100);
		//init 8 custom chars
	uint8_t ch=0, chn=0;
	while(ch<64)
    10b2:	18 30       	cpi	r17, 0x08	; 8
    10b4:	b9 f7       	brne	.-18     	; 0x10a4 <LCDinit+0x6e>
		LCDdefinechar((LcdCustomChar+ch),chn++);
		ch=ch+8;
	}

#endif
}			
    10b6:	df 91       	pop	r29
    10b8:	cf 91       	pop	r28
    10ba:	1f 91       	pop	r17
    10bc:	08 95       	ret

000010be <LCDshiftLeft>:
		LCDsendChar(pcc);
		}
}

void LCDshiftLeft(uint8_t n)	//Scrol n of characters Right
{
    10be:	0f 93       	push	r16
    10c0:	1f 93       	push	r17
    10c2:	08 2f       	mov	r16, r24
    10c4:	10 e0       	ldi	r17, 0x00	; 0
    10c6:	04 c0       	rjmp	.+8      	; 0x10d0 <LCDshiftLeft+0x12>
	for (uint8_t i=0;i<n;i++)
	{
		LCDsendCommand(0x1E);
    10c8:	8e e1       	ldi	r24, 0x1E	; 30
    10ca:	0e 94 97 07 	call	0xf2e	; 0xf2e <LCDsendCommand>
		}
}

void LCDshiftLeft(uint8_t n)	//Scrol n of characters Right
{
	for (uint8_t i=0;i<n;i++)
    10ce:	1f 5f       	subi	r17, 0xFF	; 255
    10d0:	10 17       	cp	r17, r16
    10d2:	d0 f3       	brcs	.-12     	; 0x10c8 <LCDshiftLeft+0xa>
	{
		LCDsendCommand(0x1E);
	}
}
    10d4:	1f 91       	pop	r17
    10d6:	0f 91       	pop	r16
    10d8:	08 95       	ret

000010da <LCDshiftRight>:
void LCDshiftRight(uint8_t n)	//Scrol n of characters Left
{
    10da:	0f 93       	push	r16
    10dc:	1f 93       	push	r17
    10de:	08 2f       	mov	r16, r24
    10e0:	10 e0       	ldi	r17, 0x00	; 0
    10e2:	04 c0       	rjmp	.+8      	; 0x10ec <LCDshiftRight+0x12>
	for (uint8_t i=0;i<n;i++)
	{
		LCDsendCommand(0x18);
    10e4:	88 e1       	ldi	r24, 0x18	; 24
    10e6:	0e 94 97 07 	call	0xf2e	; 0xf2e <LCDsendCommand>
		LCDsendCommand(0x1E);
	}
}
void LCDshiftRight(uint8_t n)	//Scrol n of characters Left
{
	for (uint8_t i=0;i<n;i++)
    10ea:	1f 5f       	subi	r17, 0xFF	; 255
    10ec:	10 17       	cp	r17, r16
    10ee:	d0 f3       	brcs	.-12     	; 0x10e4 <LCDshiftRight+0xa>
	{
		LCDsendCommand(0x18);
	}
}
    10f0:	1f 91       	pop	r17
    10f2:	0f 91       	pop	r16
    10f4:	08 95       	ret

000010f6 <LCDcursorOn>:
void LCDcursorOn(void) //displays LCD cursor
{
	LCDsendCommand(0x0E);
    10f6:	8e e0       	ldi	r24, 0x0E	; 14
    10f8:	0e 94 97 07 	call	0xf2e	; 0xf2e <LCDsendCommand>
}
    10fc:	08 95       	ret

000010fe <LCDcursorOnBlink>:
void LCDcursorOnBlink(void)	//displays LCD blinking cursor
{
	LCDsendCommand(0x0F);
    10fe:	8f e0       	ldi	r24, 0x0F	; 15
    1100:	0e 94 97 07 	call	0xf2e	; 0xf2e <LCDsendCommand>
}
    1104:	08 95       	ret

00001106 <LCDcursorOFF>:
void LCDcursorOFF(void)	//turns OFF cursor
{
	LCDsendCommand(0x0C);
    1106:	8c e0       	ldi	r24, 0x0C	; 12
    1108:	0e 94 97 07 	call	0xf2e	; 0xf2e <LCDsendCommand>
}
    110c:	08 95       	ret

0000110e <LCDblank>:
void LCDblank(void)		//blanks LCD
{
	LCDsendCommand(0x08);
    110e:	88 e0       	ldi	r24, 0x08	; 8
    1110:	0e 94 97 07 	call	0xf2e	; 0xf2e <LCDsendCommand>
}
    1114:	08 95       	ret

00001116 <LCDvisible>:
void LCDvisible(void)		//Shows LCD
{
	LCDsendCommand(0x0C);
    1116:	8c e0       	ldi	r24, 0x0C	; 12
    1118:	0e 94 97 07 	call	0xf2e	; 0xf2e <LCDsendCommand>
}
    111c:	08 95       	ret

0000111e <LCDcursorLeft>:
void LCDcursorLeft(uint8_t n)	//Moves cursor by n poisitions left
{
    111e:	0f 93       	push	r16
    1120:	1f 93       	push	r17
    1122:	08 2f       	mov	r16, r24
    1124:	10 e0       	ldi	r17, 0x00	; 0
    1126:	04 c0       	rjmp	.+8      	; 0x1130 <LCDcursorLeft+0x12>
	for (uint8_t i=0;i<n;i++)
	{
		LCDsendCommand(0x10);
    1128:	80 e1       	ldi	r24, 0x10	; 16
    112a:	0e 94 97 07 	call	0xf2e	; 0xf2e <LCDsendCommand>
{
	LCDsendCommand(0x0C);
}
void LCDcursorLeft(uint8_t n)	//Moves cursor by n poisitions left
{
	for (uint8_t i=0;i<n;i++)
    112e:	1f 5f       	subi	r17, 0xFF	; 255
    1130:	10 17       	cp	r17, r16
    1132:	d0 f3       	brcs	.-12     	; 0x1128 <LCDcursorLeft+0xa>
	{
		LCDsendCommand(0x10);
	}
}
    1134:	1f 91       	pop	r17
    1136:	0f 91       	pop	r16
    1138:	08 95       	ret

0000113a <LCDcursorRight>:
void LCDcursorRight(uint8_t n)	//Moves cursor by n poisitions left
{
    113a:	0f 93       	push	r16
    113c:	1f 93       	push	r17
    113e:	08 2f       	mov	r16, r24
    1140:	10 e0       	ldi	r17, 0x00	; 0
    1142:	04 c0       	rjmp	.+8      	; 0x114c <LCDcursorRight+0x12>
	for (uint8_t i=0;i<n;i++)
	{
		LCDsendCommand(0x14);
    1144:	84 e1       	ldi	r24, 0x14	; 20
    1146:	0e 94 97 07 	call	0xf2e	; 0xf2e <LCDsendCommand>
		LCDsendCommand(0x10);
	}
}
void LCDcursorRight(uint8_t n)	//Moves cursor by n poisitions left
{
	for (uint8_t i=0;i<n;i++)
    114a:	1f 5f       	subi	r17, 0xFF	; 255
    114c:	10 17       	cp	r17, r16
    114e:	d0 f3       	brcs	.-12     	; 0x1144 <LCDcursorRight+0xa>
	{
		LCDsendCommand(0x14);
	}
}
    1150:	1f 91       	pop	r17
    1152:	0f 91       	pop	r16
    1154:	08 95       	ret

00001156 <LCDprogressBar>:
//adapted fro mAVRLIB
void LCDprogressBar(uint8_t progress, uint8_t maxprogress, uint8_t length)
{
    1156:	df 92       	push	r13
    1158:	ef 92       	push	r14
    115a:	ff 92       	push	r15
    115c:	0f 93       	push	r16
    115e:	1f 93       	push	r17
    1160:	cf 93       	push	r28
    1162:	df 93       	push	r29
    1164:	d4 2e       	mov	r13, r20
	// ***note, LCD chars 0-5 must be programmed as the bar characters
	// char 0 = empty ... char 5 = full

	// total pixel length of bargraph equals length*PROGRESSPIXELS_PER_CHAR;
	// pixel length of bar itself is
	pixelprogress = ((progress*(length*PROGRESSPIXELS_PER_CHAR))/maxprogress);
    1166:	96 e0       	ldi	r25, 0x06	; 6
    1168:	89 9f       	mul	r24, r25
    116a:	c0 01       	movw	r24, r0
    116c:	11 24       	eor	r1, r1
    116e:	24 2f       	mov	r18, r20
    1170:	30 e0       	ldi	r19, 0x00	; 0
    1172:	ac 01       	movw	r20, r24
    1174:	42 9f       	mul	r20, r18
    1176:	c0 01       	movw	r24, r0
    1178:	43 9f       	mul	r20, r19
    117a:	90 0d       	add	r25, r0
    117c:	52 9f       	mul	r21, r18
    117e:	90 0d       	add	r25, r0
    1180:	11 24       	eor	r1, r1
    1182:	70 e0       	ldi	r23, 0x00	; 0
    1184:	0e 94 ba 0f 	call	0x1f74	; 0x1f74 <__divmodhi4>
    1188:	eb 01       	movw	r28, r22
				c = 0;
			}
			else
			{
				// this is a partial block
				c = pixelprogress % PROGRESSPIXELS_PER_CHAR;
    118a:	cb 01       	movw	r24, r22
    118c:	66 e0       	ldi	r22, 0x06	; 6
    118e:	70 e0       	ldi	r23, 0x00	; 0
    1190:	0e 94 a6 0f 	call	0x1f4c	; 0x1f4c <__udivmodhi4>
    1194:	e8 2e       	mov	r14, r24
    1196:	ff 24       	eor	r15, r15
    1198:	00 e0       	ldi	r16, 0x00	; 0
    119a:	10 e0       	ldi	r17, 0x00	; 0
    119c:	12 c0       	rjmp	.+36     	; 0x11c2 <LCDprogressBar+0x6c>
	// print exactly "length" characters
	for(i=0; i<length; i++)
	{
		// check if this is a full block, or partial or empty
		// (u16) cast is needed to avoid sign comparison warning
		if( ((i*(uint16_t)PROGRESSPIXELS_PER_CHAR)+5) > pixelprogress )
    119e:	c8 01       	movw	r24, r16
    11a0:	05 96       	adiw	r24, 0x05	; 5
    11a2:	c8 17       	cp	r28, r24
    11a4:	d9 07       	cpc	r29, r25
    11a6:	10 f0       	brcs	.+4      	; 0x11ac <LCDprogressBar+0x56>
    11a8:	85 e0       	ldi	r24, 0x05	; 5
    11aa:	06 c0       	rjmp	.+12     	; 0x11b8 <LCDprogressBar+0x62>
		{
			// this is a partial or empty block
			if( ((i*(uint16_t)PROGRESSPIXELS_PER_CHAR)) > pixelprogress )
    11ac:	c0 17       	cp	r28, r16
    11ae:	d1 07       	cpc	r29, r17
    11b0:	10 f0       	brcs	.+4      	; 0x11b6 <LCDprogressBar+0x60>
    11b2:	8e 2d       	mov	r24, r14
    11b4:	01 c0       	rjmp	.+2      	; 0x11b8 <LCDprogressBar+0x62>
    11b6:	80 e0       	ldi	r24, 0x00	; 0
			// this is a full block
			c = 5;
		}
		
		// write character to display
		LCDsendChar(c);
    11b8:	0e 94 76 07 	call	0xeec	; 0xeec <LCDsendChar>
	// total pixel length of bargraph equals length*PROGRESSPIXELS_PER_CHAR;
	// pixel length of bar itself is
	pixelprogress = ((progress*(length*PROGRESSPIXELS_PER_CHAR))/maxprogress);
	
	// print exactly "length" characters
	for(i=0; i<length; i++)
    11bc:	f3 94       	inc	r15
    11be:	0a 5f       	subi	r16, 0xFA	; 250
    11c0:	1f 4f       	sbci	r17, 0xFF	; 255
    11c2:	fd 14       	cp	r15, r13
    11c4:	60 f3       	brcs	.-40     	; 0x119e <LCDprogressBar+0x48>
		
		// write character to display
		LCDsendChar(c);
	}

}
    11c6:	df 91       	pop	r29
    11c8:	cf 91       	pop	r28
    11ca:	1f 91       	pop	r17
    11cc:	0f 91       	pop	r16
    11ce:	ff 90       	pop	r15
    11d0:	ef 90       	pop	r14
    11d2:	df 90       	pop	r13
    11d4:	08 95       	ret

000011d6 <uart_init>:
{
#if F_CPU < 2000000UL && defined(U2X)
  UCSR0A = _BV(U2X);             /* improve baud rate error by using 2x clk */
  UBRR0L = (F_CPU / (8UL * UART_BAUD)) - 1;
#else
  UBRR0L = (F_CPU / (16UL * UART_BAUD)) - 1;
    11d6:	87 e6       	ldi	r24, 0x67	; 103
    11d8:	80 93 c4 00 	sts	0x00C4, r24
#endif
  UCSR0B = _BV(TXEN0) | _BV(RXEN0); /* tx/rx enable */
    11dc:	88 e1       	ldi	r24, 0x18	; 24
    11de:	80 93 c1 00 	sts	0x00C1, r24
}
    11e2:	08 95       	ret

000011e4 <uart_putchar>:
 * Send character c down the UART Tx, wait until tx holding register
 * is empty.
 */
int
uart_putchar(char c, FILE *stream)
{
    11e4:	1f 93       	push	r17
    11e6:	18 2f       	mov	r17, r24

  if (c == '\a')
    11e8:	87 30       	cpi	r24, 0x07	; 7
    11ea:	49 f4       	brne	.+18     	; 0x11fe <uart_putchar+0x1a>
    {
      fputs("*ring*\n", stderr);
    11ec:	60 91 c4 02 	lds	r22, 0x02C4
    11f0:	70 91 c5 02 	lds	r23, 0x02C5
    11f4:	81 e3       	ldi	r24, 0x31	; 49
    11f6:	91 e0       	ldi	r25, 0x01	; 1
    11f8:	0e 94 2c 10 	call	0x2058	; 0x2058 <fputs>
    11fc:	0b c0       	rjmp	.+22     	; 0x1214 <uart_putchar+0x30>
      return 0;
    }

  if (c == '\n')
    11fe:	8a 30       	cpi	r24, 0x0A	; 10
    1200:	19 f4       	brne	.+6      	; 0x1208 <uart_putchar+0x24>
    uart_putchar('\r', stream);
    1202:	8d e0       	ldi	r24, 0x0D	; 13
    1204:	0e 94 f2 08 	call	0x11e4	; 0x11e4 <uart_putchar>
  loop_until_bit_is_set(UCSR0A, UDRE0);
    1208:	80 91 c0 00 	lds	r24, 0x00C0
    120c:	85 ff       	sbrs	r24, 5
    120e:	fc cf       	rjmp	.-8      	; 0x1208 <uart_putchar+0x24>
  UDR0 = c;
    1210:	10 93 c6 00 	sts	0x00C6, r17

  return 0;
}
    1214:	80 e0       	ldi	r24, 0x00	; 0
    1216:	90 e0       	ldi	r25, 0x00	; 0
    1218:	1f 91       	pop	r17
    121a:	08 95       	ret

0000121c <uart_getchar>:
 * Successive calls to uart_getchar() will be satisfied from the
 * internal buffer until that buffer is emptied again.
 */
int
uart_getchar(FILE *stream)
{
    121c:	ef 92       	push	r14
    121e:	ff 92       	push	r15
    1220:	0f 93       	push	r16
    1222:	1f 93       	push	r17
    1224:	cf 93       	push	r28
    1226:	df 93       	push	r29
    1228:	7c 01       	movw	r14, r24
  uint8_t c;
  char *cp, *cp2;
  static char b[RX_BUFSIZE];
  static char *rxp;

  if (rxp == 0)
    122a:	80 91 42 02 	lds	r24, 0x0242
    122e:	90 91 43 02 	lds	r25, 0x0243
    1232:	89 2b       	or	r24, r25
    1234:	09 f0       	breq	.+2      	; 0x1238 <uart_getchar+0x1c>
    1236:	9f c0       	rjmp	.+318    	; 0x1376 <uart_getchar+0x15a>
    1238:	04 e4       	ldi	r16, 0x44	; 68
    123a:	12 e0       	ldi	r17, 0x02	; 2
    for (cp = b;;)
      {
	loop_until_bit_is_set(UCSR0A, RXC0);
    123c:	80 91 c0 00 	lds	r24, 0x00C0
    1240:	87 ff       	sbrs	r24, 7
    1242:	fc cf       	rjmp	.-8      	; 0x123c <uart_getchar+0x20>
	if (UCSR0A & _BV(FE0))
    1244:	80 91 c0 00 	lds	r24, 0x00C0
    1248:	84 ff       	sbrs	r24, 4
    124a:	03 c0       	rjmp	.+6      	; 0x1252 <uart_getchar+0x36>
    124c:	2e ef       	ldi	r18, 0xFE	; 254
    124e:	3f ef       	ldi	r19, 0xFF	; 255
    1250:	a6 c0       	rjmp	.+332    	; 0x139e <uart_getchar+0x182>
	  return _FDEV_EOF;
	if (UCSR0A & _BV(DOR0))
    1252:	80 91 c0 00 	lds	r24, 0x00C0
    1256:	83 fd       	sbrc	r24, 3
    1258:	a0 c0       	rjmp	.+320    	; 0x139a <uart_getchar+0x17e>
	  return _FDEV_ERR;
	c = UDR0;
    125a:	90 91 c6 00 	lds	r25, 0x00C6
	/* behaviour similar to Unix stty ICRNL */
	if (c == '\r')
    125e:	9d 30       	cpi	r25, 0x0D	; 13
    1260:	11 f0       	breq	.+4      	; 0x1266 <uart_getchar+0x4a>
	  c = '\n';
	if (c == '\n')
    1262:	9a 30       	cpi	r25, 0x0A	; 10
    1264:	69 f4       	brne	.+26     	; 0x1280 <uart_getchar+0x64>
	  {
	    *cp = c;
    1266:	8a e0       	ldi	r24, 0x0A	; 10
    1268:	f8 01       	movw	r30, r16
    126a:	80 83       	st	Z, r24
	    uart_putchar(c, stream);
    126c:	b7 01       	movw	r22, r14
    126e:	0e 94 f2 08 	call	0x11e4	; 0x11e4 <uart_putchar>
	    rxp = b;
    1272:	84 e4       	ldi	r24, 0x44	; 68
    1274:	92 e0       	ldi	r25, 0x02	; 2
    1276:	90 93 43 02 	sts	0x0243, r25
    127a:	80 93 42 02 	sts	0x0242, r24
    127e:	7b c0       	rjmp	.+246    	; 0x1376 <uart_getchar+0x15a>
	    break;
	  }
	else if (c == '\t')
    1280:	99 30       	cpi	r25, 0x09	; 9
    1282:	09 f4       	brne	.+2      	; 0x1286 <uart_getchar+0x6a>
    1284:	90 e2       	ldi	r25, 0x20	; 32
	  c = ' ';

	if ((c >= (uint8_t)' ' && c <= (uint8_t)'\x7e') ||
    1286:	89 2f       	mov	r24, r25
    1288:	80 52       	subi	r24, 0x20	; 32
    128a:	8f 35       	cpi	r24, 0x5F	; 95
    128c:	10 f0       	brcs	.+4      	; 0x1292 <uart_getchar+0x76>
    128e:	90 3a       	cpi	r25, 0xA0	; 160
    1290:	70 f0       	brcs	.+28     	; 0x12ae <uart_getchar+0x92>
	    c >= (uint8_t)'\xa0')
	  {
	    if (cp == b + RX_BUFSIZE - 1)
    1292:	f2 e0       	ldi	r31, 0x02	; 2
    1294:	03 39       	cpi	r16, 0x93	; 147
    1296:	1f 07       	cpc	r17, r31
    1298:	11 f4       	brne	.+4      	; 0x129e <uart_getchar+0x82>
	      uart_putchar('\a', stream);
    129a:	87 e0       	ldi	r24, 0x07	; 7
    129c:	04 c0       	rjmp	.+8      	; 0x12a6 <uart_getchar+0x8a>
	    else
	      {
		*cp++ = c;
    129e:	f8 01       	movw	r30, r16
    12a0:	91 93       	st	Z+, r25
    12a2:	8f 01       	movw	r16, r30
		uart_putchar(c, stream);
    12a4:	89 2f       	mov	r24, r25
    12a6:	b7 01       	movw	r22, r14
    12a8:	0e 94 f2 08 	call	0x11e4	; 0x11e4 <uart_putchar>
    12ac:	c7 cf       	rjmp	.-114    	; 0x123c <uart_getchar+0x20>
	      }
	    continue;
	  }

	switch (c)
    12ae:	92 31       	cpi	r25, 0x12	; 18
    12b0:	39 f1       	breq	.+78     	; 0x1300 <uart_getchar+0xe4>
    12b2:	93 31       	cpi	r25, 0x13	; 19
    12b4:	38 f4       	brcc	.+14     	; 0x12c4 <uart_getchar+0xa8>
    12b6:	93 30       	cpi	r25, 0x03	; 3
    12b8:	09 f4       	brne	.+2      	; 0x12bc <uart_getchar+0xa0>
    12ba:	6f c0       	rjmp	.+222    	; 0x139a <uart_getchar+0x17e>
    12bc:	98 30       	cpi	r25, 0x08	; 8
    12be:	09 f0       	breq	.+2      	; 0x12c2 <uart_getchar+0xa6>
    12c0:	bd cf       	rjmp	.-134    	; 0x123c <uart_getchar+0x20>
    12c2:	09 c0       	rjmp	.+18     	; 0x12d6 <uart_getchar+0xba>
    12c4:	97 31       	cpi	r25, 0x17	; 23
    12c6:	09 f4       	brne	.+2      	; 0x12ca <uart_getchar+0xae>
    12c8:	4b c0       	rjmp	.+150    	; 0x1360 <uart_getchar+0x144>
    12ca:	9f 37       	cpi	r25, 0x7F	; 127
    12cc:	21 f0       	breq	.+8      	; 0x12d6 <uart_getchar+0xba>
    12ce:	95 31       	cpi	r25, 0x15	; 21
    12d0:	09 f0       	breq	.+2      	; 0x12d4 <uart_getchar+0xb8>
    12d2:	b4 cf       	rjmp	.-152    	; 0x123c <uart_getchar+0x20>
    12d4:	32 c0       	rjmp	.+100    	; 0x133a <uart_getchar+0x11e>
	  case 'c' & 0x1f:
	    return -1;

	  case '\b':
	  case '\x7f':
	    if (cp > b)
    12d6:	f2 e0       	ldi	r31, 0x02	; 2
    12d8:	04 34       	cpi	r16, 0x44	; 68
    12da:	1f 07       	cpc	r17, r31
    12dc:	09 f0       	breq	.+2      	; 0x12e0 <uart_getchar+0xc4>
    12de:	08 f4       	brcc	.+2      	; 0x12e2 <uart_getchar+0xc6>
    12e0:	ad cf       	rjmp	.-166    	; 0x123c <uart_getchar+0x20>
	      {
		uart_putchar('\b', stream);
    12e2:	88 e0       	ldi	r24, 0x08	; 8
    12e4:	b7 01       	movw	r22, r14
    12e6:	0e 94 f2 08 	call	0x11e4	; 0x11e4 <uart_putchar>
		uart_putchar(' ', stream);
    12ea:	80 e2       	ldi	r24, 0x20	; 32
    12ec:	b7 01       	movw	r22, r14
    12ee:	0e 94 f2 08 	call	0x11e4	; 0x11e4 <uart_putchar>
		uart_putchar('\b', stream);
    12f2:	88 e0       	ldi	r24, 0x08	; 8
    12f4:	b7 01       	movw	r22, r14
    12f6:	0e 94 f2 08 	call	0x11e4	; 0x11e4 <uart_putchar>
		cp--;
    12fa:	01 50       	subi	r16, 0x01	; 1
    12fc:	10 40       	sbci	r17, 0x00	; 0
    12fe:	9e cf       	rjmp	.-196    	; 0x123c <uart_getchar+0x20>
	      }
	    break;

	  case 'r' & 0x1f:
	    uart_putchar('\r', stream);
    1300:	8d e0       	ldi	r24, 0x0D	; 13
    1302:	b7 01       	movw	r22, r14
    1304:	0e 94 f2 08 	call	0x11e4	; 0x11e4 <uart_putchar>
    1308:	c4 e4       	ldi	r28, 0x44	; 68
    130a:	d2 e0       	ldi	r29, 0x02	; 2
    130c:	04 c0       	rjmp	.+8      	; 0x1316 <uart_getchar+0xfa>
	    for (cp2 = b; cp2 < cp; cp2++)
	      uart_putchar(*cp2, stream);
    130e:	89 91       	ld	r24, Y+
    1310:	b7 01       	movw	r22, r14
    1312:	0e 94 f2 08 	call	0x11e4	; 0x11e4 <uart_putchar>
	      }
	    break;

	  case 'r' & 0x1f:
	    uart_putchar('\r', stream);
	    for (cp2 = b; cp2 < cp; cp2++)
    1316:	c0 17       	cp	r28, r16
    1318:	d1 07       	cpc	r29, r17
    131a:	c8 f3       	brcs	.-14     	; 0x130e <uart_getchar+0xf2>
    131c:	8f cf       	rjmp	.-226    	; 0x123c <uart_getchar+0x20>
	    break;

	  case 'u' & 0x1f:
	    while (cp > b)
	      {
		uart_putchar('\b', stream);
    131e:	88 e0       	ldi	r24, 0x08	; 8
    1320:	b7 01       	movw	r22, r14
    1322:	0e 94 f2 08 	call	0x11e4	; 0x11e4 <uart_putchar>
		uart_putchar(' ', stream);
    1326:	80 e2       	ldi	r24, 0x20	; 32
    1328:	b7 01       	movw	r22, r14
    132a:	0e 94 f2 08 	call	0x11e4	; 0x11e4 <uart_putchar>
		uart_putchar('\b', stream);
    132e:	88 e0       	ldi	r24, 0x08	; 8
    1330:	b7 01       	movw	r22, r14
    1332:	0e 94 f2 08 	call	0x11e4	; 0x11e4 <uart_putchar>
		cp--;
    1336:	01 50       	subi	r16, 0x01	; 1
    1338:	10 40       	sbci	r17, 0x00	; 0
	    for (cp2 = b; cp2 < cp; cp2++)
	      uart_putchar(*cp2, stream);
	    break;

	  case 'u' & 0x1f:
	    while (cp > b)
    133a:	82 e0       	ldi	r24, 0x02	; 2
    133c:	04 34       	cpi	r16, 0x44	; 68
    133e:	18 07       	cpc	r17, r24
    1340:	09 f0       	breq	.+2      	; 0x1344 <uart_getchar+0x128>
    1342:	68 f7       	brcc	.-38     	; 0x131e <uart_getchar+0x102>
    1344:	7b cf       	rjmp	.-266    	; 0x123c <uart_getchar+0x20>
	    break;

	  case 'w' & 0x1f:
	    while (cp > b && cp[-1] != ' ')
	      {
		uart_putchar('\b', stream);
    1346:	88 e0       	ldi	r24, 0x08	; 8
    1348:	b7 01       	movw	r22, r14
    134a:	0e 94 f2 08 	call	0x11e4	; 0x11e4 <uart_putchar>
		uart_putchar(' ', stream);
    134e:	80 e2       	ldi	r24, 0x20	; 32
    1350:	b7 01       	movw	r22, r14
    1352:	0e 94 f2 08 	call	0x11e4	; 0x11e4 <uart_putchar>
		uart_putchar('\b', stream);
    1356:	88 e0       	ldi	r24, 0x08	; 8
    1358:	b7 01       	movw	r22, r14
    135a:	0e 94 f2 08 	call	0x11e4	; 0x11e4 <uart_putchar>
    135e:	8e 01       	movw	r16, r28
		cp--;
	      }
	    break;

	  case 'w' & 0x1f:
	    while (cp > b && cp[-1] != ' ')
    1360:	e2 e0       	ldi	r30, 0x02	; 2
    1362:	04 34       	cpi	r16, 0x44	; 68
    1364:	1e 07       	cpc	r17, r30
    1366:	09 f0       	breq	.+2      	; 0x136a <uart_getchar+0x14e>
    1368:	08 f4       	brcc	.+2      	; 0x136c <uart_getchar+0x150>
    136a:	68 cf       	rjmp	.-304    	; 0x123c <uart_getchar+0x20>
    136c:	e8 01       	movw	r28, r16
    136e:	8a 91       	ld	r24, -Y
    1370:	80 32       	cpi	r24, 0x20	; 32
    1372:	49 f7       	brne	.-46     	; 0x1346 <uart_getchar+0x12a>
    1374:	63 cf       	rjmp	.-314    	; 0x123c <uart_getchar+0x20>
	      }
	    break;
	  }
      }

  c = *rxp++;
    1376:	e0 91 42 02 	lds	r30, 0x0242
    137a:	f0 91 43 02 	lds	r31, 0x0243
    137e:	81 91       	ld	r24, Z+
    1380:	f0 93 43 02 	sts	0x0243, r31
    1384:	e0 93 42 02 	sts	0x0242, r30
  if (c == '\n')
    1388:	8a 30       	cpi	r24, 0x0A	; 10
    138a:	21 f4       	brne	.+8      	; 0x1394 <uart_getchar+0x178>
    rxp = 0;
    138c:	10 92 43 02 	sts	0x0243, r1
    1390:	10 92 42 02 	sts	0x0242, r1

  return c;
    1394:	28 2f       	mov	r18, r24
    1396:	30 e0       	ldi	r19, 0x00	; 0
    1398:	02 c0       	rjmp	.+4      	; 0x139e <uart_getchar+0x182>
    139a:	2f ef       	ldi	r18, 0xFF	; 255
    139c:	3f ef       	ldi	r19, 0xFF	; 255
}
    139e:	c9 01       	movw	r24, r18
    13a0:	df 91       	pop	r29
    13a2:	cf 91       	pop	r28
    13a4:	1f 91       	pop	r17
    13a6:	0f 91       	pop	r16
    13a8:	ff 90       	pop	r15
    13aa:	ef 90       	pop	r14
    13ac:	08 95       	ret

000013ae <_fpadd_parts>:
    13ae:	a0 e0       	ldi	r26, 0x00	; 0
    13b0:	b0 e0       	ldi	r27, 0x00	; 0
    13b2:	ed ed       	ldi	r30, 0xDD	; 221
    13b4:	f9 e0       	ldi	r31, 0x09	; 9
    13b6:	0c 94 cd 0f 	jmp	0x1f9a	; 0x1f9a <__prologue_saves__>
    13ba:	dc 01       	movw	r26, r24
    13bc:	2b 01       	movw	r4, r22
    13be:	fa 01       	movw	r30, r20
    13c0:	9c 91       	ld	r25, X
    13c2:	92 30       	cpi	r25, 0x02	; 2
    13c4:	08 f4       	brcc	.+2      	; 0x13c8 <_fpadd_parts+0x1a>
    13c6:	39 c1       	rjmp	.+626    	; 0x163a <_fpadd_parts+0x28c>
    13c8:	eb 01       	movw	r28, r22
    13ca:	88 81       	ld	r24, Y
    13cc:	82 30       	cpi	r24, 0x02	; 2
    13ce:	08 f4       	brcc	.+2      	; 0x13d2 <_fpadd_parts+0x24>
    13d0:	33 c1       	rjmp	.+614    	; 0x1638 <_fpadd_parts+0x28a>
    13d2:	94 30       	cpi	r25, 0x04	; 4
    13d4:	69 f4       	brne	.+26     	; 0x13f0 <_fpadd_parts+0x42>
    13d6:	84 30       	cpi	r24, 0x04	; 4
    13d8:	09 f0       	breq	.+2      	; 0x13dc <_fpadd_parts+0x2e>
    13da:	2f c1       	rjmp	.+606    	; 0x163a <_fpadd_parts+0x28c>
    13dc:	11 96       	adiw	r26, 0x01	; 1
    13de:	9c 91       	ld	r25, X
    13e0:	11 97       	sbiw	r26, 0x01	; 1
    13e2:	89 81       	ldd	r24, Y+1	; 0x01
    13e4:	98 17       	cp	r25, r24
    13e6:	09 f4       	brne	.+2      	; 0x13ea <_fpadd_parts+0x3c>
    13e8:	28 c1       	rjmp	.+592    	; 0x163a <_fpadd_parts+0x28c>
    13ea:	a9 e3       	ldi	r26, 0x39	; 57
    13ec:	b1 e0       	ldi	r27, 0x01	; 1
    13ee:	25 c1       	rjmp	.+586    	; 0x163a <_fpadd_parts+0x28c>
    13f0:	84 30       	cpi	r24, 0x04	; 4
    13f2:	09 f4       	brne	.+2      	; 0x13f6 <_fpadd_parts+0x48>
    13f4:	21 c1       	rjmp	.+578    	; 0x1638 <_fpadd_parts+0x28a>
    13f6:	82 30       	cpi	r24, 0x02	; 2
    13f8:	a9 f4       	brne	.+42     	; 0x1424 <_fpadd_parts+0x76>
    13fa:	92 30       	cpi	r25, 0x02	; 2
    13fc:	09 f0       	breq	.+2      	; 0x1400 <_fpadd_parts+0x52>
    13fe:	1d c1       	rjmp	.+570    	; 0x163a <_fpadd_parts+0x28c>
    1400:	9a 01       	movw	r18, r20
    1402:	ad 01       	movw	r20, r26
    1404:	88 e0       	ldi	r24, 0x08	; 8
    1406:	ea 01       	movw	r28, r20
    1408:	09 90       	ld	r0, Y+
    140a:	ae 01       	movw	r20, r28
    140c:	e9 01       	movw	r28, r18
    140e:	09 92       	st	Y+, r0
    1410:	9e 01       	movw	r18, r28
    1412:	81 50       	subi	r24, 0x01	; 1
    1414:	c1 f7       	brne	.-16     	; 0x1406 <_fpadd_parts+0x58>
    1416:	e2 01       	movw	r28, r4
    1418:	89 81       	ldd	r24, Y+1	; 0x01
    141a:	11 96       	adiw	r26, 0x01	; 1
    141c:	9c 91       	ld	r25, X
    141e:	89 23       	and	r24, r25
    1420:	81 83       	std	Z+1, r24	; 0x01
    1422:	08 c1       	rjmp	.+528    	; 0x1634 <_fpadd_parts+0x286>
    1424:	92 30       	cpi	r25, 0x02	; 2
    1426:	09 f4       	brne	.+2      	; 0x142a <_fpadd_parts+0x7c>
    1428:	07 c1       	rjmp	.+526    	; 0x1638 <_fpadd_parts+0x28a>
    142a:	12 96       	adiw	r26, 0x02	; 2
    142c:	2d 90       	ld	r2, X+
    142e:	3c 90       	ld	r3, X
    1430:	13 97       	sbiw	r26, 0x03	; 3
    1432:	eb 01       	movw	r28, r22
    1434:	8a 81       	ldd	r24, Y+2	; 0x02
    1436:	9b 81       	ldd	r25, Y+3	; 0x03
    1438:	14 96       	adiw	r26, 0x04	; 4
    143a:	ad 90       	ld	r10, X+
    143c:	bd 90       	ld	r11, X+
    143e:	cd 90       	ld	r12, X+
    1440:	dc 90       	ld	r13, X
    1442:	17 97       	sbiw	r26, 0x07	; 7
    1444:	ec 80       	ldd	r14, Y+4	; 0x04
    1446:	fd 80       	ldd	r15, Y+5	; 0x05
    1448:	0e 81       	ldd	r16, Y+6	; 0x06
    144a:	1f 81       	ldd	r17, Y+7	; 0x07
    144c:	91 01       	movw	r18, r2
    144e:	28 1b       	sub	r18, r24
    1450:	39 0b       	sbc	r19, r25
    1452:	b9 01       	movw	r22, r18
    1454:	37 ff       	sbrs	r19, 7
    1456:	04 c0       	rjmp	.+8      	; 0x1460 <_fpadd_parts+0xb2>
    1458:	66 27       	eor	r22, r22
    145a:	77 27       	eor	r23, r23
    145c:	62 1b       	sub	r22, r18
    145e:	73 0b       	sbc	r23, r19
    1460:	60 32       	cpi	r22, 0x20	; 32
    1462:	71 05       	cpc	r23, r1
    1464:	0c f0       	brlt	.+2      	; 0x1468 <_fpadd_parts+0xba>
    1466:	61 c0       	rjmp	.+194    	; 0x152a <_fpadd_parts+0x17c>
    1468:	12 16       	cp	r1, r18
    146a:	13 06       	cpc	r1, r19
    146c:	6c f5       	brge	.+90     	; 0x14c8 <_fpadd_parts+0x11a>
    146e:	37 01       	movw	r6, r14
    1470:	48 01       	movw	r8, r16
    1472:	06 2e       	mov	r0, r22
    1474:	04 c0       	rjmp	.+8      	; 0x147e <_fpadd_parts+0xd0>
    1476:	96 94       	lsr	r9
    1478:	87 94       	ror	r8
    147a:	77 94       	ror	r7
    147c:	67 94       	ror	r6
    147e:	0a 94       	dec	r0
    1480:	d2 f7       	brpl	.-12     	; 0x1476 <_fpadd_parts+0xc8>
    1482:	21 e0       	ldi	r18, 0x01	; 1
    1484:	30 e0       	ldi	r19, 0x00	; 0
    1486:	40 e0       	ldi	r20, 0x00	; 0
    1488:	50 e0       	ldi	r21, 0x00	; 0
    148a:	04 c0       	rjmp	.+8      	; 0x1494 <_fpadd_parts+0xe6>
    148c:	22 0f       	add	r18, r18
    148e:	33 1f       	adc	r19, r19
    1490:	44 1f       	adc	r20, r20
    1492:	55 1f       	adc	r21, r21
    1494:	6a 95       	dec	r22
    1496:	d2 f7       	brpl	.-12     	; 0x148c <_fpadd_parts+0xde>
    1498:	21 50       	subi	r18, 0x01	; 1
    149a:	30 40       	sbci	r19, 0x00	; 0
    149c:	40 40       	sbci	r20, 0x00	; 0
    149e:	50 40       	sbci	r21, 0x00	; 0
    14a0:	2e 21       	and	r18, r14
    14a2:	3f 21       	and	r19, r15
    14a4:	40 23       	and	r20, r16
    14a6:	51 23       	and	r21, r17
    14a8:	21 15       	cp	r18, r1
    14aa:	31 05       	cpc	r19, r1
    14ac:	41 05       	cpc	r20, r1
    14ae:	51 05       	cpc	r21, r1
    14b0:	21 f0       	breq	.+8      	; 0x14ba <_fpadd_parts+0x10c>
    14b2:	21 e0       	ldi	r18, 0x01	; 1
    14b4:	30 e0       	ldi	r19, 0x00	; 0
    14b6:	40 e0       	ldi	r20, 0x00	; 0
    14b8:	50 e0       	ldi	r21, 0x00	; 0
    14ba:	79 01       	movw	r14, r18
    14bc:	8a 01       	movw	r16, r20
    14be:	e6 28       	or	r14, r6
    14c0:	f7 28       	or	r15, r7
    14c2:	08 29       	or	r16, r8
    14c4:	19 29       	or	r17, r9
    14c6:	3c c0       	rjmp	.+120    	; 0x1540 <_fpadd_parts+0x192>
    14c8:	23 2b       	or	r18, r19
    14ca:	d1 f1       	breq	.+116    	; 0x1540 <_fpadd_parts+0x192>
    14cc:	26 0e       	add	r2, r22
    14ce:	37 1e       	adc	r3, r23
    14d0:	35 01       	movw	r6, r10
    14d2:	46 01       	movw	r8, r12
    14d4:	06 2e       	mov	r0, r22
    14d6:	04 c0       	rjmp	.+8      	; 0x14e0 <_fpadd_parts+0x132>
    14d8:	96 94       	lsr	r9
    14da:	87 94       	ror	r8
    14dc:	77 94       	ror	r7
    14de:	67 94       	ror	r6
    14e0:	0a 94       	dec	r0
    14e2:	d2 f7       	brpl	.-12     	; 0x14d8 <_fpadd_parts+0x12a>
    14e4:	21 e0       	ldi	r18, 0x01	; 1
    14e6:	30 e0       	ldi	r19, 0x00	; 0
    14e8:	40 e0       	ldi	r20, 0x00	; 0
    14ea:	50 e0       	ldi	r21, 0x00	; 0
    14ec:	04 c0       	rjmp	.+8      	; 0x14f6 <_fpadd_parts+0x148>
    14ee:	22 0f       	add	r18, r18
    14f0:	33 1f       	adc	r19, r19
    14f2:	44 1f       	adc	r20, r20
    14f4:	55 1f       	adc	r21, r21
    14f6:	6a 95       	dec	r22
    14f8:	d2 f7       	brpl	.-12     	; 0x14ee <_fpadd_parts+0x140>
    14fa:	21 50       	subi	r18, 0x01	; 1
    14fc:	30 40       	sbci	r19, 0x00	; 0
    14fe:	40 40       	sbci	r20, 0x00	; 0
    1500:	50 40       	sbci	r21, 0x00	; 0
    1502:	2a 21       	and	r18, r10
    1504:	3b 21       	and	r19, r11
    1506:	4c 21       	and	r20, r12
    1508:	5d 21       	and	r21, r13
    150a:	21 15       	cp	r18, r1
    150c:	31 05       	cpc	r19, r1
    150e:	41 05       	cpc	r20, r1
    1510:	51 05       	cpc	r21, r1
    1512:	21 f0       	breq	.+8      	; 0x151c <_fpadd_parts+0x16e>
    1514:	21 e0       	ldi	r18, 0x01	; 1
    1516:	30 e0       	ldi	r19, 0x00	; 0
    1518:	40 e0       	ldi	r20, 0x00	; 0
    151a:	50 e0       	ldi	r21, 0x00	; 0
    151c:	59 01       	movw	r10, r18
    151e:	6a 01       	movw	r12, r20
    1520:	a6 28       	or	r10, r6
    1522:	b7 28       	or	r11, r7
    1524:	c8 28       	or	r12, r8
    1526:	d9 28       	or	r13, r9
    1528:	0b c0       	rjmp	.+22     	; 0x1540 <_fpadd_parts+0x192>
    152a:	82 15       	cp	r24, r2
    152c:	93 05       	cpc	r25, r3
    152e:	2c f0       	brlt	.+10     	; 0x153a <_fpadd_parts+0x18c>
    1530:	1c 01       	movw	r2, r24
    1532:	aa 24       	eor	r10, r10
    1534:	bb 24       	eor	r11, r11
    1536:	65 01       	movw	r12, r10
    1538:	03 c0       	rjmp	.+6      	; 0x1540 <_fpadd_parts+0x192>
    153a:	ee 24       	eor	r14, r14
    153c:	ff 24       	eor	r15, r15
    153e:	87 01       	movw	r16, r14
    1540:	11 96       	adiw	r26, 0x01	; 1
    1542:	9c 91       	ld	r25, X
    1544:	d2 01       	movw	r26, r4
    1546:	11 96       	adiw	r26, 0x01	; 1
    1548:	8c 91       	ld	r24, X
    154a:	98 17       	cp	r25, r24
    154c:	09 f4       	brne	.+2      	; 0x1550 <_fpadd_parts+0x1a2>
    154e:	45 c0       	rjmp	.+138    	; 0x15da <_fpadd_parts+0x22c>
    1550:	99 23       	and	r25, r25
    1552:	39 f0       	breq	.+14     	; 0x1562 <_fpadd_parts+0x1b4>
    1554:	a8 01       	movw	r20, r16
    1556:	97 01       	movw	r18, r14
    1558:	2a 19       	sub	r18, r10
    155a:	3b 09       	sbc	r19, r11
    155c:	4c 09       	sbc	r20, r12
    155e:	5d 09       	sbc	r21, r13
    1560:	06 c0       	rjmp	.+12     	; 0x156e <_fpadd_parts+0x1c0>
    1562:	a6 01       	movw	r20, r12
    1564:	95 01       	movw	r18, r10
    1566:	2e 19       	sub	r18, r14
    1568:	3f 09       	sbc	r19, r15
    156a:	40 0b       	sbc	r20, r16
    156c:	51 0b       	sbc	r21, r17
    156e:	57 fd       	sbrc	r21, 7
    1570:	08 c0       	rjmp	.+16     	; 0x1582 <_fpadd_parts+0x1d4>
    1572:	11 82       	std	Z+1, r1	; 0x01
    1574:	33 82       	std	Z+3, r3	; 0x03
    1576:	22 82       	std	Z+2, r2	; 0x02
    1578:	24 83       	std	Z+4, r18	; 0x04
    157a:	35 83       	std	Z+5, r19	; 0x05
    157c:	46 83       	std	Z+6, r20	; 0x06
    157e:	57 83       	std	Z+7, r21	; 0x07
    1580:	1d c0       	rjmp	.+58     	; 0x15bc <_fpadd_parts+0x20e>
    1582:	81 e0       	ldi	r24, 0x01	; 1
    1584:	81 83       	std	Z+1, r24	; 0x01
    1586:	33 82       	std	Z+3, r3	; 0x03
    1588:	22 82       	std	Z+2, r2	; 0x02
    158a:	88 27       	eor	r24, r24
    158c:	99 27       	eor	r25, r25
    158e:	dc 01       	movw	r26, r24
    1590:	82 1b       	sub	r24, r18
    1592:	93 0b       	sbc	r25, r19
    1594:	a4 0b       	sbc	r26, r20
    1596:	b5 0b       	sbc	r27, r21
    1598:	84 83       	std	Z+4, r24	; 0x04
    159a:	95 83       	std	Z+5, r25	; 0x05
    159c:	a6 83       	std	Z+6, r26	; 0x06
    159e:	b7 83       	std	Z+7, r27	; 0x07
    15a0:	0d c0       	rjmp	.+26     	; 0x15bc <_fpadd_parts+0x20e>
    15a2:	22 0f       	add	r18, r18
    15a4:	33 1f       	adc	r19, r19
    15a6:	44 1f       	adc	r20, r20
    15a8:	55 1f       	adc	r21, r21
    15aa:	24 83       	std	Z+4, r18	; 0x04
    15ac:	35 83       	std	Z+5, r19	; 0x05
    15ae:	46 83       	std	Z+6, r20	; 0x06
    15b0:	57 83       	std	Z+7, r21	; 0x07
    15b2:	82 81       	ldd	r24, Z+2	; 0x02
    15b4:	93 81       	ldd	r25, Z+3	; 0x03
    15b6:	01 97       	sbiw	r24, 0x01	; 1
    15b8:	93 83       	std	Z+3, r25	; 0x03
    15ba:	82 83       	std	Z+2, r24	; 0x02
    15bc:	24 81       	ldd	r18, Z+4	; 0x04
    15be:	35 81       	ldd	r19, Z+5	; 0x05
    15c0:	46 81       	ldd	r20, Z+6	; 0x06
    15c2:	57 81       	ldd	r21, Z+7	; 0x07
    15c4:	da 01       	movw	r26, r20
    15c6:	c9 01       	movw	r24, r18
    15c8:	01 97       	sbiw	r24, 0x01	; 1
    15ca:	a1 09       	sbc	r26, r1
    15cc:	b1 09       	sbc	r27, r1
    15ce:	8f 5f       	subi	r24, 0xFF	; 255
    15d0:	9f 4f       	sbci	r25, 0xFF	; 255
    15d2:	af 4f       	sbci	r26, 0xFF	; 255
    15d4:	bf 43       	sbci	r27, 0x3F	; 63
    15d6:	28 f3       	brcs	.-54     	; 0x15a2 <_fpadd_parts+0x1f4>
    15d8:	0b c0       	rjmp	.+22     	; 0x15f0 <_fpadd_parts+0x242>
    15da:	91 83       	std	Z+1, r25	; 0x01
    15dc:	33 82       	std	Z+3, r3	; 0x03
    15de:	22 82       	std	Z+2, r2	; 0x02
    15e0:	ea 0c       	add	r14, r10
    15e2:	fb 1c       	adc	r15, r11
    15e4:	0c 1d       	adc	r16, r12
    15e6:	1d 1d       	adc	r17, r13
    15e8:	e4 82       	std	Z+4, r14	; 0x04
    15ea:	f5 82       	std	Z+5, r15	; 0x05
    15ec:	06 83       	std	Z+6, r16	; 0x06
    15ee:	17 83       	std	Z+7, r17	; 0x07
    15f0:	83 e0       	ldi	r24, 0x03	; 3
    15f2:	80 83       	st	Z, r24
    15f4:	24 81       	ldd	r18, Z+4	; 0x04
    15f6:	35 81       	ldd	r19, Z+5	; 0x05
    15f8:	46 81       	ldd	r20, Z+6	; 0x06
    15fa:	57 81       	ldd	r21, Z+7	; 0x07
    15fc:	57 ff       	sbrs	r21, 7
    15fe:	1a c0       	rjmp	.+52     	; 0x1634 <_fpadd_parts+0x286>
    1600:	c9 01       	movw	r24, r18
    1602:	aa 27       	eor	r26, r26
    1604:	97 fd       	sbrc	r25, 7
    1606:	a0 95       	com	r26
    1608:	ba 2f       	mov	r27, r26
    160a:	81 70       	andi	r24, 0x01	; 1
    160c:	90 70       	andi	r25, 0x00	; 0
    160e:	a0 70       	andi	r26, 0x00	; 0
    1610:	b0 70       	andi	r27, 0x00	; 0
    1612:	56 95       	lsr	r21
    1614:	47 95       	ror	r20
    1616:	37 95       	ror	r19
    1618:	27 95       	ror	r18
    161a:	82 2b       	or	r24, r18
    161c:	93 2b       	or	r25, r19
    161e:	a4 2b       	or	r26, r20
    1620:	b5 2b       	or	r27, r21
    1622:	84 83       	std	Z+4, r24	; 0x04
    1624:	95 83       	std	Z+5, r25	; 0x05
    1626:	a6 83       	std	Z+6, r26	; 0x06
    1628:	b7 83       	std	Z+7, r27	; 0x07
    162a:	82 81       	ldd	r24, Z+2	; 0x02
    162c:	93 81       	ldd	r25, Z+3	; 0x03
    162e:	01 96       	adiw	r24, 0x01	; 1
    1630:	93 83       	std	Z+3, r25	; 0x03
    1632:	82 83       	std	Z+2, r24	; 0x02
    1634:	df 01       	movw	r26, r30
    1636:	01 c0       	rjmp	.+2      	; 0x163a <_fpadd_parts+0x28c>
    1638:	d2 01       	movw	r26, r4
    163a:	cd 01       	movw	r24, r26
    163c:	cd b7       	in	r28, 0x3d	; 61
    163e:	de b7       	in	r29, 0x3e	; 62
    1640:	e2 e1       	ldi	r30, 0x12	; 18
    1642:	0c 94 e9 0f 	jmp	0x1fd2	; 0x1fd2 <__epilogue_restores__>

00001646 <__subsf3>:
    1646:	a0 e2       	ldi	r26, 0x20	; 32
    1648:	b0 e0       	ldi	r27, 0x00	; 0
    164a:	e9 e2       	ldi	r30, 0x29	; 41
    164c:	fb e0       	ldi	r31, 0x0B	; 11
    164e:	0c 94 d9 0f 	jmp	0x1fb2	; 0x1fb2 <__prologue_saves__+0x18>
    1652:	69 83       	std	Y+1, r22	; 0x01
    1654:	7a 83       	std	Y+2, r23	; 0x02
    1656:	8b 83       	std	Y+3, r24	; 0x03
    1658:	9c 83       	std	Y+4, r25	; 0x04
    165a:	2d 83       	std	Y+5, r18	; 0x05
    165c:	3e 83       	std	Y+6, r19	; 0x06
    165e:	4f 83       	std	Y+7, r20	; 0x07
    1660:	58 87       	std	Y+8, r21	; 0x08
    1662:	e9 e0       	ldi	r30, 0x09	; 9
    1664:	ee 2e       	mov	r14, r30
    1666:	f1 2c       	mov	r15, r1
    1668:	ec 0e       	add	r14, r28
    166a:	fd 1e       	adc	r15, r29
    166c:	ce 01       	movw	r24, r28
    166e:	01 96       	adiw	r24, 0x01	; 1
    1670:	b7 01       	movw	r22, r14
    1672:	0e 94 22 0f 	call	0x1e44	; 0x1e44 <__unpack_f>
    1676:	8e 01       	movw	r16, r28
    1678:	0f 5e       	subi	r16, 0xEF	; 239
    167a:	1f 4f       	sbci	r17, 0xFF	; 255
    167c:	ce 01       	movw	r24, r28
    167e:	05 96       	adiw	r24, 0x05	; 5
    1680:	b8 01       	movw	r22, r16
    1682:	0e 94 22 0f 	call	0x1e44	; 0x1e44 <__unpack_f>
    1686:	8a 89       	ldd	r24, Y+18	; 0x12
    1688:	91 e0       	ldi	r25, 0x01	; 1
    168a:	89 27       	eor	r24, r25
    168c:	8a 8b       	std	Y+18, r24	; 0x12
    168e:	c7 01       	movw	r24, r14
    1690:	b8 01       	movw	r22, r16
    1692:	ae 01       	movw	r20, r28
    1694:	47 5e       	subi	r20, 0xE7	; 231
    1696:	5f 4f       	sbci	r21, 0xFF	; 255
    1698:	0e 94 d7 09 	call	0x13ae	; 0x13ae <_fpadd_parts>
    169c:	0e 94 4d 0e 	call	0x1c9a	; 0x1c9a <__pack_f>
    16a0:	a0 96       	adiw	r28, 0x20	; 32
    16a2:	e6 e0       	ldi	r30, 0x06	; 6
    16a4:	0c 94 f5 0f 	jmp	0x1fea	; 0x1fea <__epilogue_restores__+0x18>

000016a8 <__addsf3>:
    16a8:	a0 e2       	ldi	r26, 0x20	; 32
    16aa:	b0 e0       	ldi	r27, 0x00	; 0
    16ac:	ea e5       	ldi	r30, 0x5A	; 90
    16ae:	fb e0       	ldi	r31, 0x0B	; 11
    16b0:	0c 94 d9 0f 	jmp	0x1fb2	; 0x1fb2 <__prologue_saves__+0x18>
    16b4:	69 83       	std	Y+1, r22	; 0x01
    16b6:	7a 83       	std	Y+2, r23	; 0x02
    16b8:	8b 83       	std	Y+3, r24	; 0x03
    16ba:	9c 83       	std	Y+4, r25	; 0x04
    16bc:	2d 83       	std	Y+5, r18	; 0x05
    16be:	3e 83       	std	Y+6, r19	; 0x06
    16c0:	4f 83       	std	Y+7, r20	; 0x07
    16c2:	58 87       	std	Y+8, r21	; 0x08
    16c4:	f9 e0       	ldi	r31, 0x09	; 9
    16c6:	ef 2e       	mov	r14, r31
    16c8:	f1 2c       	mov	r15, r1
    16ca:	ec 0e       	add	r14, r28
    16cc:	fd 1e       	adc	r15, r29
    16ce:	ce 01       	movw	r24, r28
    16d0:	01 96       	adiw	r24, 0x01	; 1
    16d2:	b7 01       	movw	r22, r14
    16d4:	0e 94 22 0f 	call	0x1e44	; 0x1e44 <__unpack_f>
    16d8:	8e 01       	movw	r16, r28
    16da:	0f 5e       	subi	r16, 0xEF	; 239
    16dc:	1f 4f       	sbci	r17, 0xFF	; 255
    16de:	ce 01       	movw	r24, r28
    16e0:	05 96       	adiw	r24, 0x05	; 5
    16e2:	b8 01       	movw	r22, r16
    16e4:	0e 94 22 0f 	call	0x1e44	; 0x1e44 <__unpack_f>
    16e8:	c7 01       	movw	r24, r14
    16ea:	b8 01       	movw	r22, r16
    16ec:	ae 01       	movw	r20, r28
    16ee:	47 5e       	subi	r20, 0xE7	; 231
    16f0:	5f 4f       	sbci	r21, 0xFF	; 255
    16f2:	0e 94 d7 09 	call	0x13ae	; 0x13ae <_fpadd_parts>
    16f6:	0e 94 4d 0e 	call	0x1c9a	; 0x1c9a <__pack_f>
    16fa:	a0 96       	adiw	r28, 0x20	; 32
    16fc:	e6 e0       	ldi	r30, 0x06	; 6
    16fe:	0c 94 f5 0f 	jmp	0x1fea	; 0x1fea <__epilogue_restores__+0x18>

00001702 <__mulsf3>:
    1702:	a0 e2       	ldi	r26, 0x20	; 32
    1704:	b0 e0       	ldi	r27, 0x00	; 0
    1706:	e7 e8       	ldi	r30, 0x87	; 135
    1708:	fb e0       	ldi	r31, 0x0B	; 11
    170a:	0c 94 cd 0f 	jmp	0x1f9a	; 0x1f9a <__prologue_saves__>
    170e:	69 83       	std	Y+1, r22	; 0x01
    1710:	7a 83       	std	Y+2, r23	; 0x02
    1712:	8b 83       	std	Y+3, r24	; 0x03
    1714:	9c 83       	std	Y+4, r25	; 0x04
    1716:	2d 83       	std	Y+5, r18	; 0x05
    1718:	3e 83       	std	Y+6, r19	; 0x06
    171a:	4f 83       	std	Y+7, r20	; 0x07
    171c:	58 87       	std	Y+8, r21	; 0x08
    171e:	ce 01       	movw	r24, r28
    1720:	01 96       	adiw	r24, 0x01	; 1
    1722:	be 01       	movw	r22, r28
    1724:	67 5f       	subi	r22, 0xF7	; 247
    1726:	7f 4f       	sbci	r23, 0xFF	; 255
    1728:	0e 94 22 0f 	call	0x1e44	; 0x1e44 <__unpack_f>
    172c:	ce 01       	movw	r24, r28
    172e:	05 96       	adiw	r24, 0x05	; 5
    1730:	be 01       	movw	r22, r28
    1732:	6f 5e       	subi	r22, 0xEF	; 239
    1734:	7f 4f       	sbci	r23, 0xFF	; 255
    1736:	0e 94 22 0f 	call	0x1e44	; 0x1e44 <__unpack_f>
    173a:	99 85       	ldd	r25, Y+9	; 0x09
    173c:	92 30       	cpi	r25, 0x02	; 2
    173e:	88 f0       	brcs	.+34     	; 0x1762 <__mulsf3+0x60>
    1740:	89 89       	ldd	r24, Y+17	; 0x11
    1742:	82 30       	cpi	r24, 0x02	; 2
    1744:	c8 f0       	brcs	.+50     	; 0x1778 <__mulsf3+0x76>
    1746:	94 30       	cpi	r25, 0x04	; 4
    1748:	19 f4       	brne	.+6      	; 0x1750 <__mulsf3+0x4e>
    174a:	82 30       	cpi	r24, 0x02	; 2
    174c:	51 f4       	brne	.+20     	; 0x1762 <__mulsf3+0x60>
    174e:	04 c0       	rjmp	.+8      	; 0x1758 <__mulsf3+0x56>
    1750:	84 30       	cpi	r24, 0x04	; 4
    1752:	29 f4       	brne	.+10     	; 0x175e <__mulsf3+0x5c>
    1754:	92 30       	cpi	r25, 0x02	; 2
    1756:	81 f4       	brne	.+32     	; 0x1778 <__mulsf3+0x76>
    1758:	89 e3       	ldi	r24, 0x39	; 57
    175a:	91 e0       	ldi	r25, 0x01	; 1
    175c:	c6 c0       	rjmp	.+396    	; 0x18ea <__mulsf3+0x1e8>
    175e:	92 30       	cpi	r25, 0x02	; 2
    1760:	49 f4       	brne	.+18     	; 0x1774 <__mulsf3+0x72>
    1762:	20 e0       	ldi	r18, 0x00	; 0
    1764:	9a 85       	ldd	r25, Y+10	; 0x0a
    1766:	8a 89       	ldd	r24, Y+18	; 0x12
    1768:	98 13       	cpse	r25, r24
    176a:	21 e0       	ldi	r18, 0x01	; 1
    176c:	2a 87       	std	Y+10, r18	; 0x0a
    176e:	ce 01       	movw	r24, r28
    1770:	09 96       	adiw	r24, 0x09	; 9
    1772:	bb c0       	rjmp	.+374    	; 0x18ea <__mulsf3+0x1e8>
    1774:	82 30       	cpi	r24, 0x02	; 2
    1776:	49 f4       	brne	.+18     	; 0x178a <__mulsf3+0x88>
    1778:	20 e0       	ldi	r18, 0x00	; 0
    177a:	9a 85       	ldd	r25, Y+10	; 0x0a
    177c:	8a 89       	ldd	r24, Y+18	; 0x12
    177e:	98 13       	cpse	r25, r24
    1780:	21 e0       	ldi	r18, 0x01	; 1
    1782:	2a 8b       	std	Y+18, r18	; 0x12
    1784:	ce 01       	movw	r24, r28
    1786:	41 96       	adiw	r24, 0x11	; 17
    1788:	b0 c0       	rjmp	.+352    	; 0x18ea <__mulsf3+0x1e8>
    178a:	2d 84       	ldd	r2, Y+13	; 0x0d
    178c:	3e 84       	ldd	r3, Y+14	; 0x0e
    178e:	4f 84       	ldd	r4, Y+15	; 0x0f
    1790:	58 88       	ldd	r5, Y+16	; 0x10
    1792:	6d 88       	ldd	r6, Y+21	; 0x15
    1794:	7e 88       	ldd	r7, Y+22	; 0x16
    1796:	8f 88       	ldd	r8, Y+23	; 0x17
    1798:	98 8c       	ldd	r9, Y+24	; 0x18
    179a:	ee 24       	eor	r14, r14
    179c:	ff 24       	eor	r15, r15
    179e:	87 01       	movw	r16, r14
    17a0:	aa 24       	eor	r10, r10
    17a2:	bb 24       	eor	r11, r11
    17a4:	65 01       	movw	r12, r10
    17a6:	40 e0       	ldi	r20, 0x00	; 0
    17a8:	50 e0       	ldi	r21, 0x00	; 0
    17aa:	60 e0       	ldi	r22, 0x00	; 0
    17ac:	70 e0       	ldi	r23, 0x00	; 0
    17ae:	e0 e0       	ldi	r30, 0x00	; 0
    17b0:	f0 e0       	ldi	r31, 0x00	; 0
    17b2:	c1 01       	movw	r24, r2
    17b4:	81 70       	andi	r24, 0x01	; 1
    17b6:	90 70       	andi	r25, 0x00	; 0
    17b8:	89 2b       	or	r24, r25
    17ba:	e9 f0       	breq	.+58     	; 0x17f6 <__mulsf3+0xf4>
    17bc:	e6 0c       	add	r14, r6
    17be:	f7 1c       	adc	r15, r7
    17c0:	08 1d       	adc	r16, r8
    17c2:	19 1d       	adc	r17, r9
    17c4:	9a 01       	movw	r18, r20
    17c6:	ab 01       	movw	r20, r22
    17c8:	2a 0d       	add	r18, r10
    17ca:	3b 1d       	adc	r19, r11
    17cc:	4c 1d       	adc	r20, r12
    17ce:	5d 1d       	adc	r21, r13
    17d0:	80 e0       	ldi	r24, 0x00	; 0
    17d2:	90 e0       	ldi	r25, 0x00	; 0
    17d4:	a0 e0       	ldi	r26, 0x00	; 0
    17d6:	b0 e0       	ldi	r27, 0x00	; 0
    17d8:	e6 14       	cp	r14, r6
    17da:	f7 04       	cpc	r15, r7
    17dc:	08 05       	cpc	r16, r8
    17de:	19 05       	cpc	r17, r9
    17e0:	20 f4       	brcc	.+8      	; 0x17ea <__mulsf3+0xe8>
    17e2:	81 e0       	ldi	r24, 0x01	; 1
    17e4:	90 e0       	ldi	r25, 0x00	; 0
    17e6:	a0 e0       	ldi	r26, 0x00	; 0
    17e8:	b0 e0       	ldi	r27, 0x00	; 0
    17ea:	ba 01       	movw	r22, r20
    17ec:	a9 01       	movw	r20, r18
    17ee:	48 0f       	add	r20, r24
    17f0:	59 1f       	adc	r21, r25
    17f2:	6a 1f       	adc	r22, r26
    17f4:	7b 1f       	adc	r23, r27
    17f6:	aa 0c       	add	r10, r10
    17f8:	bb 1c       	adc	r11, r11
    17fa:	cc 1c       	adc	r12, r12
    17fc:	dd 1c       	adc	r13, r13
    17fe:	97 fe       	sbrs	r9, 7
    1800:	08 c0       	rjmp	.+16     	; 0x1812 <__mulsf3+0x110>
    1802:	81 e0       	ldi	r24, 0x01	; 1
    1804:	90 e0       	ldi	r25, 0x00	; 0
    1806:	a0 e0       	ldi	r26, 0x00	; 0
    1808:	b0 e0       	ldi	r27, 0x00	; 0
    180a:	a8 2a       	or	r10, r24
    180c:	b9 2a       	or	r11, r25
    180e:	ca 2a       	or	r12, r26
    1810:	db 2a       	or	r13, r27
    1812:	31 96       	adiw	r30, 0x01	; 1
    1814:	e0 32       	cpi	r30, 0x20	; 32
    1816:	f1 05       	cpc	r31, r1
    1818:	49 f0       	breq	.+18     	; 0x182c <__mulsf3+0x12a>
    181a:	66 0c       	add	r6, r6
    181c:	77 1c       	adc	r7, r7
    181e:	88 1c       	adc	r8, r8
    1820:	99 1c       	adc	r9, r9
    1822:	56 94       	lsr	r5
    1824:	47 94       	ror	r4
    1826:	37 94       	ror	r3
    1828:	27 94       	ror	r2
    182a:	c3 cf       	rjmp	.-122    	; 0x17b2 <__mulsf3+0xb0>
    182c:	fa 85       	ldd	r31, Y+10	; 0x0a
    182e:	ea 89       	ldd	r30, Y+18	; 0x12
    1830:	2b 89       	ldd	r18, Y+19	; 0x13
    1832:	3c 89       	ldd	r19, Y+20	; 0x14
    1834:	8b 85       	ldd	r24, Y+11	; 0x0b
    1836:	9c 85       	ldd	r25, Y+12	; 0x0c
    1838:	28 0f       	add	r18, r24
    183a:	39 1f       	adc	r19, r25
    183c:	2e 5f       	subi	r18, 0xFE	; 254
    183e:	3f 4f       	sbci	r19, 0xFF	; 255
    1840:	17 c0       	rjmp	.+46     	; 0x1870 <__mulsf3+0x16e>
    1842:	ca 01       	movw	r24, r20
    1844:	81 70       	andi	r24, 0x01	; 1
    1846:	90 70       	andi	r25, 0x00	; 0
    1848:	89 2b       	or	r24, r25
    184a:	61 f0       	breq	.+24     	; 0x1864 <__mulsf3+0x162>
    184c:	16 95       	lsr	r17
    184e:	07 95       	ror	r16
    1850:	f7 94       	ror	r15
    1852:	e7 94       	ror	r14
    1854:	80 e0       	ldi	r24, 0x00	; 0
    1856:	90 e0       	ldi	r25, 0x00	; 0
    1858:	a0 e0       	ldi	r26, 0x00	; 0
    185a:	b0 e8       	ldi	r27, 0x80	; 128
    185c:	e8 2a       	or	r14, r24
    185e:	f9 2a       	or	r15, r25
    1860:	0a 2b       	or	r16, r26
    1862:	1b 2b       	or	r17, r27
    1864:	76 95       	lsr	r23
    1866:	67 95       	ror	r22
    1868:	57 95       	ror	r21
    186a:	47 95       	ror	r20
    186c:	2f 5f       	subi	r18, 0xFF	; 255
    186e:	3f 4f       	sbci	r19, 0xFF	; 255
    1870:	77 fd       	sbrc	r23, 7
    1872:	e7 cf       	rjmp	.-50     	; 0x1842 <__mulsf3+0x140>
    1874:	0c c0       	rjmp	.+24     	; 0x188e <__mulsf3+0x18c>
    1876:	44 0f       	add	r20, r20
    1878:	55 1f       	adc	r21, r21
    187a:	66 1f       	adc	r22, r22
    187c:	77 1f       	adc	r23, r23
    187e:	17 fd       	sbrc	r17, 7
    1880:	41 60       	ori	r20, 0x01	; 1
    1882:	ee 0c       	add	r14, r14
    1884:	ff 1c       	adc	r15, r15
    1886:	00 1f       	adc	r16, r16
    1888:	11 1f       	adc	r17, r17
    188a:	21 50       	subi	r18, 0x01	; 1
    188c:	30 40       	sbci	r19, 0x00	; 0
    188e:	40 30       	cpi	r20, 0x00	; 0
    1890:	90 e0       	ldi	r25, 0x00	; 0
    1892:	59 07       	cpc	r21, r25
    1894:	90 e0       	ldi	r25, 0x00	; 0
    1896:	69 07       	cpc	r22, r25
    1898:	90 e4       	ldi	r25, 0x40	; 64
    189a:	79 07       	cpc	r23, r25
    189c:	60 f3       	brcs	.-40     	; 0x1876 <__mulsf3+0x174>
    189e:	2b 8f       	std	Y+27, r18	; 0x1b
    18a0:	3c 8f       	std	Y+28, r19	; 0x1c
    18a2:	db 01       	movw	r26, r22
    18a4:	ca 01       	movw	r24, r20
    18a6:	8f 77       	andi	r24, 0x7F	; 127
    18a8:	90 70       	andi	r25, 0x00	; 0
    18aa:	a0 70       	andi	r26, 0x00	; 0
    18ac:	b0 70       	andi	r27, 0x00	; 0
    18ae:	80 34       	cpi	r24, 0x40	; 64
    18b0:	91 05       	cpc	r25, r1
    18b2:	a1 05       	cpc	r26, r1
    18b4:	b1 05       	cpc	r27, r1
    18b6:	61 f4       	brne	.+24     	; 0x18d0 <__mulsf3+0x1ce>
    18b8:	47 fd       	sbrc	r20, 7
    18ba:	0a c0       	rjmp	.+20     	; 0x18d0 <__mulsf3+0x1ce>
    18bc:	e1 14       	cp	r14, r1
    18be:	f1 04       	cpc	r15, r1
    18c0:	01 05       	cpc	r16, r1
    18c2:	11 05       	cpc	r17, r1
    18c4:	29 f0       	breq	.+10     	; 0x18d0 <__mulsf3+0x1ce>
    18c6:	40 5c       	subi	r20, 0xC0	; 192
    18c8:	5f 4f       	sbci	r21, 0xFF	; 255
    18ca:	6f 4f       	sbci	r22, 0xFF	; 255
    18cc:	7f 4f       	sbci	r23, 0xFF	; 255
    18ce:	40 78       	andi	r20, 0x80	; 128
    18d0:	1a 8e       	std	Y+26, r1	; 0x1a
    18d2:	fe 17       	cp	r31, r30
    18d4:	11 f0       	breq	.+4      	; 0x18da <__mulsf3+0x1d8>
    18d6:	81 e0       	ldi	r24, 0x01	; 1
    18d8:	8a 8f       	std	Y+26, r24	; 0x1a
    18da:	4d 8f       	std	Y+29, r20	; 0x1d
    18dc:	5e 8f       	std	Y+30, r21	; 0x1e
    18de:	6f 8f       	std	Y+31, r22	; 0x1f
    18e0:	78 a3       	std	Y+32, r23	; 0x20
    18e2:	83 e0       	ldi	r24, 0x03	; 3
    18e4:	89 8f       	std	Y+25, r24	; 0x19
    18e6:	ce 01       	movw	r24, r28
    18e8:	49 96       	adiw	r24, 0x19	; 25
    18ea:	0e 94 4d 0e 	call	0x1c9a	; 0x1c9a <__pack_f>
    18ee:	a0 96       	adiw	r28, 0x20	; 32
    18f0:	e2 e1       	ldi	r30, 0x12	; 18
    18f2:	0c 94 e9 0f 	jmp	0x1fd2	; 0x1fd2 <__epilogue_restores__>

000018f6 <__divsf3>:
    18f6:	a8 e1       	ldi	r26, 0x18	; 24
    18f8:	b0 e0       	ldi	r27, 0x00	; 0
    18fa:	e1 e8       	ldi	r30, 0x81	; 129
    18fc:	fc e0       	ldi	r31, 0x0C	; 12
    18fe:	0c 94 d5 0f 	jmp	0x1faa	; 0x1faa <__prologue_saves__+0x10>
    1902:	69 83       	std	Y+1, r22	; 0x01
    1904:	7a 83       	std	Y+2, r23	; 0x02
    1906:	8b 83       	std	Y+3, r24	; 0x03
    1908:	9c 83       	std	Y+4, r25	; 0x04
    190a:	2d 83       	std	Y+5, r18	; 0x05
    190c:	3e 83       	std	Y+6, r19	; 0x06
    190e:	4f 83       	std	Y+7, r20	; 0x07
    1910:	58 87       	std	Y+8, r21	; 0x08
    1912:	b9 e0       	ldi	r27, 0x09	; 9
    1914:	eb 2e       	mov	r14, r27
    1916:	f1 2c       	mov	r15, r1
    1918:	ec 0e       	add	r14, r28
    191a:	fd 1e       	adc	r15, r29
    191c:	ce 01       	movw	r24, r28
    191e:	01 96       	adiw	r24, 0x01	; 1
    1920:	b7 01       	movw	r22, r14
    1922:	0e 94 22 0f 	call	0x1e44	; 0x1e44 <__unpack_f>
    1926:	8e 01       	movw	r16, r28
    1928:	0f 5e       	subi	r16, 0xEF	; 239
    192a:	1f 4f       	sbci	r17, 0xFF	; 255
    192c:	ce 01       	movw	r24, r28
    192e:	05 96       	adiw	r24, 0x05	; 5
    1930:	b8 01       	movw	r22, r16
    1932:	0e 94 22 0f 	call	0x1e44	; 0x1e44 <__unpack_f>
    1936:	29 85       	ldd	r18, Y+9	; 0x09
    1938:	22 30       	cpi	r18, 0x02	; 2
    193a:	08 f4       	brcc	.+2      	; 0x193e <__divsf3+0x48>
    193c:	7e c0       	rjmp	.+252    	; 0x1a3a <__divsf3+0x144>
    193e:	39 89       	ldd	r19, Y+17	; 0x11
    1940:	32 30       	cpi	r19, 0x02	; 2
    1942:	10 f4       	brcc	.+4      	; 0x1948 <__divsf3+0x52>
    1944:	b8 01       	movw	r22, r16
    1946:	7c c0       	rjmp	.+248    	; 0x1a40 <__divsf3+0x14a>
    1948:	8a 85       	ldd	r24, Y+10	; 0x0a
    194a:	9a 89       	ldd	r25, Y+18	; 0x12
    194c:	89 27       	eor	r24, r25
    194e:	8a 87       	std	Y+10, r24	; 0x0a
    1950:	24 30       	cpi	r18, 0x04	; 4
    1952:	11 f0       	breq	.+4      	; 0x1958 <__divsf3+0x62>
    1954:	22 30       	cpi	r18, 0x02	; 2
    1956:	31 f4       	brne	.+12     	; 0x1964 <__divsf3+0x6e>
    1958:	23 17       	cp	r18, r19
    195a:	09 f0       	breq	.+2      	; 0x195e <__divsf3+0x68>
    195c:	6e c0       	rjmp	.+220    	; 0x1a3a <__divsf3+0x144>
    195e:	69 e3       	ldi	r22, 0x39	; 57
    1960:	71 e0       	ldi	r23, 0x01	; 1
    1962:	6e c0       	rjmp	.+220    	; 0x1a40 <__divsf3+0x14a>
    1964:	34 30       	cpi	r19, 0x04	; 4
    1966:	39 f4       	brne	.+14     	; 0x1976 <__divsf3+0x80>
    1968:	1d 86       	std	Y+13, r1	; 0x0d
    196a:	1e 86       	std	Y+14, r1	; 0x0e
    196c:	1f 86       	std	Y+15, r1	; 0x0f
    196e:	18 8a       	std	Y+16, r1	; 0x10
    1970:	1c 86       	std	Y+12, r1	; 0x0c
    1972:	1b 86       	std	Y+11, r1	; 0x0b
    1974:	04 c0       	rjmp	.+8      	; 0x197e <__divsf3+0x88>
    1976:	32 30       	cpi	r19, 0x02	; 2
    1978:	21 f4       	brne	.+8      	; 0x1982 <__divsf3+0x8c>
    197a:	84 e0       	ldi	r24, 0x04	; 4
    197c:	89 87       	std	Y+9, r24	; 0x09
    197e:	b7 01       	movw	r22, r14
    1980:	5f c0       	rjmp	.+190    	; 0x1a40 <__divsf3+0x14a>
    1982:	2b 85       	ldd	r18, Y+11	; 0x0b
    1984:	3c 85       	ldd	r19, Y+12	; 0x0c
    1986:	8b 89       	ldd	r24, Y+19	; 0x13
    1988:	9c 89       	ldd	r25, Y+20	; 0x14
    198a:	28 1b       	sub	r18, r24
    198c:	39 0b       	sbc	r19, r25
    198e:	3c 87       	std	Y+12, r19	; 0x0c
    1990:	2b 87       	std	Y+11, r18	; 0x0b
    1992:	ed 84       	ldd	r14, Y+13	; 0x0d
    1994:	fe 84       	ldd	r15, Y+14	; 0x0e
    1996:	0f 85       	ldd	r16, Y+15	; 0x0f
    1998:	18 89       	ldd	r17, Y+16	; 0x10
    199a:	ad 88       	ldd	r10, Y+21	; 0x15
    199c:	be 88       	ldd	r11, Y+22	; 0x16
    199e:	cf 88       	ldd	r12, Y+23	; 0x17
    19a0:	d8 8c       	ldd	r13, Y+24	; 0x18
    19a2:	ea 14       	cp	r14, r10
    19a4:	fb 04       	cpc	r15, r11
    19a6:	0c 05       	cpc	r16, r12
    19a8:	1d 05       	cpc	r17, r13
    19aa:	40 f4       	brcc	.+16     	; 0x19bc <__divsf3+0xc6>
    19ac:	ee 0c       	add	r14, r14
    19ae:	ff 1c       	adc	r15, r15
    19b0:	00 1f       	adc	r16, r16
    19b2:	11 1f       	adc	r17, r17
    19b4:	21 50       	subi	r18, 0x01	; 1
    19b6:	30 40       	sbci	r19, 0x00	; 0
    19b8:	3c 87       	std	Y+12, r19	; 0x0c
    19ba:	2b 87       	std	Y+11, r18	; 0x0b
    19bc:	20 e0       	ldi	r18, 0x00	; 0
    19be:	30 e0       	ldi	r19, 0x00	; 0
    19c0:	40 e0       	ldi	r20, 0x00	; 0
    19c2:	50 e0       	ldi	r21, 0x00	; 0
    19c4:	80 e0       	ldi	r24, 0x00	; 0
    19c6:	90 e0       	ldi	r25, 0x00	; 0
    19c8:	a0 e0       	ldi	r26, 0x00	; 0
    19ca:	b0 e4       	ldi	r27, 0x40	; 64
    19cc:	60 e0       	ldi	r22, 0x00	; 0
    19ce:	70 e0       	ldi	r23, 0x00	; 0
    19d0:	ea 14       	cp	r14, r10
    19d2:	fb 04       	cpc	r15, r11
    19d4:	0c 05       	cpc	r16, r12
    19d6:	1d 05       	cpc	r17, r13
    19d8:	40 f0       	brcs	.+16     	; 0x19ea <__divsf3+0xf4>
    19da:	28 2b       	or	r18, r24
    19dc:	39 2b       	or	r19, r25
    19de:	4a 2b       	or	r20, r26
    19e0:	5b 2b       	or	r21, r27
    19e2:	ea 18       	sub	r14, r10
    19e4:	fb 08       	sbc	r15, r11
    19e6:	0c 09       	sbc	r16, r12
    19e8:	1d 09       	sbc	r17, r13
    19ea:	b6 95       	lsr	r27
    19ec:	a7 95       	ror	r26
    19ee:	97 95       	ror	r25
    19f0:	87 95       	ror	r24
    19f2:	ee 0c       	add	r14, r14
    19f4:	ff 1c       	adc	r15, r15
    19f6:	00 1f       	adc	r16, r16
    19f8:	11 1f       	adc	r17, r17
    19fa:	6f 5f       	subi	r22, 0xFF	; 255
    19fc:	7f 4f       	sbci	r23, 0xFF	; 255
    19fe:	6f 31       	cpi	r22, 0x1F	; 31
    1a00:	71 05       	cpc	r23, r1
    1a02:	31 f7       	brne	.-52     	; 0x19d0 <__divsf3+0xda>
    1a04:	da 01       	movw	r26, r20
    1a06:	c9 01       	movw	r24, r18
    1a08:	8f 77       	andi	r24, 0x7F	; 127
    1a0a:	90 70       	andi	r25, 0x00	; 0
    1a0c:	a0 70       	andi	r26, 0x00	; 0
    1a0e:	b0 70       	andi	r27, 0x00	; 0
    1a10:	80 34       	cpi	r24, 0x40	; 64
    1a12:	91 05       	cpc	r25, r1
    1a14:	a1 05       	cpc	r26, r1
    1a16:	b1 05       	cpc	r27, r1
    1a18:	61 f4       	brne	.+24     	; 0x1a32 <__divsf3+0x13c>
    1a1a:	27 fd       	sbrc	r18, 7
    1a1c:	0a c0       	rjmp	.+20     	; 0x1a32 <__divsf3+0x13c>
    1a1e:	e1 14       	cp	r14, r1
    1a20:	f1 04       	cpc	r15, r1
    1a22:	01 05       	cpc	r16, r1
    1a24:	11 05       	cpc	r17, r1
    1a26:	29 f0       	breq	.+10     	; 0x1a32 <__divsf3+0x13c>
    1a28:	20 5c       	subi	r18, 0xC0	; 192
    1a2a:	3f 4f       	sbci	r19, 0xFF	; 255
    1a2c:	4f 4f       	sbci	r20, 0xFF	; 255
    1a2e:	5f 4f       	sbci	r21, 0xFF	; 255
    1a30:	20 78       	andi	r18, 0x80	; 128
    1a32:	2d 87       	std	Y+13, r18	; 0x0d
    1a34:	3e 87       	std	Y+14, r19	; 0x0e
    1a36:	4f 87       	std	Y+15, r20	; 0x0f
    1a38:	58 8b       	std	Y+16, r21	; 0x10
    1a3a:	be 01       	movw	r22, r28
    1a3c:	67 5f       	subi	r22, 0xF7	; 247
    1a3e:	7f 4f       	sbci	r23, 0xFF	; 255
    1a40:	cb 01       	movw	r24, r22
    1a42:	0e 94 4d 0e 	call	0x1c9a	; 0x1c9a <__pack_f>
    1a46:	68 96       	adiw	r28, 0x18	; 24
    1a48:	ea e0       	ldi	r30, 0x0A	; 10
    1a4a:	0c 94 f1 0f 	jmp	0x1fe2	; 0x1fe2 <__epilogue_restores__+0x10>

00001a4e <__floatsisf>:
    1a4e:	a8 e0       	ldi	r26, 0x08	; 8
    1a50:	b0 e0       	ldi	r27, 0x00	; 0
    1a52:	ed e2       	ldi	r30, 0x2D	; 45
    1a54:	fd e0       	ldi	r31, 0x0D	; 13
    1a56:	0c 94 d6 0f 	jmp	0x1fac	; 0x1fac <__prologue_saves__+0x12>
    1a5a:	9b 01       	movw	r18, r22
    1a5c:	ac 01       	movw	r20, r24
    1a5e:	83 e0       	ldi	r24, 0x03	; 3
    1a60:	89 83       	std	Y+1, r24	; 0x01
    1a62:	da 01       	movw	r26, r20
    1a64:	c9 01       	movw	r24, r18
    1a66:	88 27       	eor	r24, r24
    1a68:	b7 fd       	sbrc	r27, 7
    1a6a:	83 95       	inc	r24
    1a6c:	99 27       	eor	r25, r25
    1a6e:	aa 27       	eor	r26, r26
    1a70:	bb 27       	eor	r27, r27
    1a72:	b8 2e       	mov	r11, r24
    1a74:	21 15       	cp	r18, r1
    1a76:	31 05       	cpc	r19, r1
    1a78:	41 05       	cpc	r20, r1
    1a7a:	51 05       	cpc	r21, r1
    1a7c:	19 f4       	brne	.+6      	; 0x1a84 <__floatsisf+0x36>
    1a7e:	82 e0       	ldi	r24, 0x02	; 2
    1a80:	89 83       	std	Y+1, r24	; 0x01
    1a82:	3a c0       	rjmp	.+116    	; 0x1af8 <__floatsisf+0xaa>
    1a84:	88 23       	and	r24, r24
    1a86:	a9 f0       	breq	.+42     	; 0x1ab2 <__floatsisf+0x64>
    1a88:	20 30       	cpi	r18, 0x00	; 0
    1a8a:	80 e0       	ldi	r24, 0x00	; 0
    1a8c:	38 07       	cpc	r19, r24
    1a8e:	80 e0       	ldi	r24, 0x00	; 0
    1a90:	48 07       	cpc	r20, r24
    1a92:	80 e8       	ldi	r24, 0x80	; 128
    1a94:	58 07       	cpc	r21, r24
    1a96:	29 f4       	brne	.+10     	; 0x1aa2 <__floatsisf+0x54>
    1a98:	60 e0       	ldi	r22, 0x00	; 0
    1a9a:	70 e0       	ldi	r23, 0x00	; 0
    1a9c:	80 e0       	ldi	r24, 0x00	; 0
    1a9e:	9f ec       	ldi	r25, 0xCF	; 207
    1aa0:	30 c0       	rjmp	.+96     	; 0x1b02 <__floatsisf+0xb4>
    1aa2:	ee 24       	eor	r14, r14
    1aa4:	ff 24       	eor	r15, r15
    1aa6:	87 01       	movw	r16, r14
    1aa8:	e2 1a       	sub	r14, r18
    1aaa:	f3 0a       	sbc	r15, r19
    1aac:	04 0b       	sbc	r16, r20
    1aae:	15 0b       	sbc	r17, r21
    1ab0:	02 c0       	rjmp	.+4      	; 0x1ab6 <__floatsisf+0x68>
    1ab2:	79 01       	movw	r14, r18
    1ab4:	8a 01       	movw	r16, r20
    1ab6:	8e e1       	ldi	r24, 0x1E	; 30
    1ab8:	c8 2e       	mov	r12, r24
    1aba:	d1 2c       	mov	r13, r1
    1abc:	dc 82       	std	Y+4, r13	; 0x04
    1abe:	cb 82       	std	Y+3, r12	; 0x03
    1ac0:	ed 82       	std	Y+5, r14	; 0x05
    1ac2:	fe 82       	std	Y+6, r15	; 0x06
    1ac4:	0f 83       	std	Y+7, r16	; 0x07
    1ac6:	18 87       	std	Y+8, r17	; 0x08
    1ac8:	c8 01       	movw	r24, r16
    1aca:	b7 01       	movw	r22, r14
    1acc:	0e 94 fe 0d 	call	0x1bfc	; 0x1bfc <__clzsi2>
    1ad0:	01 97       	sbiw	r24, 0x01	; 1
    1ad2:	18 16       	cp	r1, r24
    1ad4:	19 06       	cpc	r1, r25
    1ad6:	84 f4       	brge	.+32     	; 0x1af8 <__floatsisf+0xaa>
    1ad8:	08 2e       	mov	r0, r24
    1ada:	04 c0       	rjmp	.+8      	; 0x1ae4 <__floatsisf+0x96>
    1adc:	ee 0c       	add	r14, r14
    1ade:	ff 1c       	adc	r15, r15
    1ae0:	00 1f       	adc	r16, r16
    1ae2:	11 1f       	adc	r17, r17
    1ae4:	0a 94       	dec	r0
    1ae6:	d2 f7       	brpl	.-12     	; 0x1adc <__floatsisf+0x8e>
    1ae8:	ed 82       	std	Y+5, r14	; 0x05
    1aea:	fe 82       	std	Y+6, r15	; 0x06
    1aec:	0f 83       	std	Y+7, r16	; 0x07
    1aee:	18 87       	std	Y+8, r17	; 0x08
    1af0:	c8 1a       	sub	r12, r24
    1af2:	d9 0a       	sbc	r13, r25
    1af4:	dc 82       	std	Y+4, r13	; 0x04
    1af6:	cb 82       	std	Y+3, r12	; 0x03
    1af8:	ba 82       	std	Y+2, r11	; 0x02
    1afa:	ce 01       	movw	r24, r28
    1afc:	01 96       	adiw	r24, 0x01	; 1
    1afe:	0e 94 4d 0e 	call	0x1c9a	; 0x1c9a <__pack_f>
    1b02:	28 96       	adiw	r28, 0x08	; 8
    1b04:	e9 e0       	ldi	r30, 0x09	; 9
    1b06:	0c 94 f2 0f 	jmp	0x1fe4	; 0x1fe4 <__epilogue_restores__+0x12>

00001b0a <__floatunsisf>:
    1b0a:	a8 e0       	ldi	r26, 0x08	; 8
    1b0c:	b0 e0       	ldi	r27, 0x00	; 0
    1b0e:	eb e8       	ldi	r30, 0x8B	; 139
    1b10:	fd e0       	ldi	r31, 0x0D	; 13
    1b12:	0c 94 d5 0f 	jmp	0x1faa	; 0x1faa <__prologue_saves__+0x10>
    1b16:	7b 01       	movw	r14, r22
    1b18:	8c 01       	movw	r16, r24
    1b1a:	61 15       	cp	r22, r1
    1b1c:	71 05       	cpc	r23, r1
    1b1e:	81 05       	cpc	r24, r1
    1b20:	91 05       	cpc	r25, r1
    1b22:	19 f4       	brne	.+6      	; 0x1b2a <__floatunsisf+0x20>
    1b24:	82 e0       	ldi	r24, 0x02	; 2
    1b26:	89 83       	std	Y+1, r24	; 0x01
    1b28:	60 c0       	rjmp	.+192    	; 0x1bea <__floatunsisf+0xe0>
    1b2a:	83 e0       	ldi	r24, 0x03	; 3
    1b2c:	89 83       	std	Y+1, r24	; 0x01
    1b2e:	8e e1       	ldi	r24, 0x1E	; 30
    1b30:	c8 2e       	mov	r12, r24
    1b32:	d1 2c       	mov	r13, r1
    1b34:	dc 82       	std	Y+4, r13	; 0x04
    1b36:	cb 82       	std	Y+3, r12	; 0x03
    1b38:	ed 82       	std	Y+5, r14	; 0x05
    1b3a:	fe 82       	std	Y+6, r15	; 0x06
    1b3c:	0f 83       	std	Y+7, r16	; 0x07
    1b3e:	18 87       	std	Y+8, r17	; 0x08
    1b40:	c8 01       	movw	r24, r16
    1b42:	b7 01       	movw	r22, r14
    1b44:	0e 94 fe 0d 	call	0x1bfc	; 0x1bfc <__clzsi2>
    1b48:	fc 01       	movw	r30, r24
    1b4a:	31 97       	sbiw	r30, 0x01	; 1
    1b4c:	f7 ff       	sbrs	r31, 7
    1b4e:	3b c0       	rjmp	.+118    	; 0x1bc6 <__floatunsisf+0xbc>
    1b50:	22 27       	eor	r18, r18
    1b52:	33 27       	eor	r19, r19
    1b54:	2e 1b       	sub	r18, r30
    1b56:	3f 0b       	sbc	r19, r31
    1b58:	57 01       	movw	r10, r14
    1b5a:	68 01       	movw	r12, r16
    1b5c:	02 2e       	mov	r0, r18
    1b5e:	04 c0       	rjmp	.+8      	; 0x1b68 <__floatunsisf+0x5e>
    1b60:	d6 94       	lsr	r13
    1b62:	c7 94       	ror	r12
    1b64:	b7 94       	ror	r11
    1b66:	a7 94       	ror	r10
    1b68:	0a 94       	dec	r0
    1b6a:	d2 f7       	brpl	.-12     	; 0x1b60 <__floatunsisf+0x56>
    1b6c:	40 e0       	ldi	r20, 0x00	; 0
    1b6e:	50 e0       	ldi	r21, 0x00	; 0
    1b70:	60 e0       	ldi	r22, 0x00	; 0
    1b72:	70 e0       	ldi	r23, 0x00	; 0
    1b74:	81 e0       	ldi	r24, 0x01	; 1
    1b76:	90 e0       	ldi	r25, 0x00	; 0
    1b78:	a0 e0       	ldi	r26, 0x00	; 0
    1b7a:	b0 e0       	ldi	r27, 0x00	; 0
    1b7c:	04 c0       	rjmp	.+8      	; 0x1b86 <__floatunsisf+0x7c>
    1b7e:	88 0f       	add	r24, r24
    1b80:	99 1f       	adc	r25, r25
    1b82:	aa 1f       	adc	r26, r26
    1b84:	bb 1f       	adc	r27, r27
    1b86:	2a 95       	dec	r18
    1b88:	d2 f7       	brpl	.-12     	; 0x1b7e <__floatunsisf+0x74>
    1b8a:	01 97       	sbiw	r24, 0x01	; 1
    1b8c:	a1 09       	sbc	r26, r1
    1b8e:	b1 09       	sbc	r27, r1
    1b90:	8e 21       	and	r24, r14
    1b92:	9f 21       	and	r25, r15
    1b94:	a0 23       	and	r26, r16
    1b96:	b1 23       	and	r27, r17
    1b98:	00 97       	sbiw	r24, 0x00	; 0
    1b9a:	a1 05       	cpc	r26, r1
    1b9c:	b1 05       	cpc	r27, r1
    1b9e:	21 f0       	breq	.+8      	; 0x1ba8 <__floatunsisf+0x9e>
    1ba0:	41 e0       	ldi	r20, 0x01	; 1
    1ba2:	50 e0       	ldi	r21, 0x00	; 0
    1ba4:	60 e0       	ldi	r22, 0x00	; 0
    1ba6:	70 e0       	ldi	r23, 0x00	; 0
    1ba8:	4a 29       	or	r20, r10
    1baa:	5b 29       	or	r21, r11
    1bac:	6c 29       	or	r22, r12
    1bae:	7d 29       	or	r23, r13
    1bb0:	4d 83       	std	Y+5, r20	; 0x05
    1bb2:	5e 83       	std	Y+6, r21	; 0x06
    1bb4:	6f 83       	std	Y+7, r22	; 0x07
    1bb6:	78 87       	std	Y+8, r23	; 0x08
    1bb8:	8e e1       	ldi	r24, 0x1E	; 30
    1bba:	90 e0       	ldi	r25, 0x00	; 0
    1bbc:	8e 1b       	sub	r24, r30
    1bbe:	9f 0b       	sbc	r25, r31
    1bc0:	9c 83       	std	Y+4, r25	; 0x04
    1bc2:	8b 83       	std	Y+3, r24	; 0x03
    1bc4:	12 c0       	rjmp	.+36     	; 0x1bea <__floatunsisf+0xe0>
    1bc6:	30 97       	sbiw	r30, 0x00	; 0
    1bc8:	81 f0       	breq	.+32     	; 0x1bea <__floatunsisf+0xe0>
    1bca:	0e 2e       	mov	r0, r30
    1bcc:	04 c0       	rjmp	.+8      	; 0x1bd6 <__floatunsisf+0xcc>
    1bce:	ee 0c       	add	r14, r14
    1bd0:	ff 1c       	adc	r15, r15
    1bd2:	00 1f       	adc	r16, r16
    1bd4:	11 1f       	adc	r17, r17
    1bd6:	0a 94       	dec	r0
    1bd8:	d2 f7       	brpl	.-12     	; 0x1bce <__floatunsisf+0xc4>
    1bda:	ed 82       	std	Y+5, r14	; 0x05
    1bdc:	fe 82       	std	Y+6, r15	; 0x06
    1bde:	0f 83       	std	Y+7, r16	; 0x07
    1be0:	18 87       	std	Y+8, r17	; 0x08
    1be2:	ce 1a       	sub	r12, r30
    1be4:	df 0a       	sbc	r13, r31
    1be6:	dc 82       	std	Y+4, r13	; 0x04
    1be8:	cb 82       	std	Y+3, r12	; 0x03
    1bea:	1a 82       	std	Y+2, r1	; 0x02
    1bec:	ce 01       	movw	r24, r28
    1bee:	01 96       	adiw	r24, 0x01	; 1
    1bf0:	0e 94 4d 0e 	call	0x1c9a	; 0x1c9a <__pack_f>
    1bf4:	28 96       	adiw	r28, 0x08	; 8
    1bf6:	ea e0       	ldi	r30, 0x0A	; 10
    1bf8:	0c 94 f1 0f 	jmp	0x1fe2	; 0x1fe2 <__epilogue_restores__+0x10>

00001bfc <__clzsi2>:
    1bfc:	ef 92       	push	r14
    1bfe:	ff 92       	push	r15
    1c00:	0f 93       	push	r16
    1c02:	1f 93       	push	r17
    1c04:	7b 01       	movw	r14, r22
    1c06:	8c 01       	movw	r16, r24
    1c08:	80 e0       	ldi	r24, 0x00	; 0
    1c0a:	e8 16       	cp	r14, r24
    1c0c:	80 e0       	ldi	r24, 0x00	; 0
    1c0e:	f8 06       	cpc	r15, r24
    1c10:	81 e0       	ldi	r24, 0x01	; 1
    1c12:	08 07       	cpc	r16, r24
    1c14:	80 e0       	ldi	r24, 0x00	; 0
    1c16:	18 07       	cpc	r17, r24
    1c18:	88 f4       	brcc	.+34     	; 0x1c3c <__clzsi2+0x40>
    1c1a:	8f ef       	ldi	r24, 0xFF	; 255
    1c1c:	e8 16       	cp	r14, r24
    1c1e:	f1 04       	cpc	r15, r1
    1c20:	01 05       	cpc	r16, r1
    1c22:	11 05       	cpc	r17, r1
    1c24:	31 f0       	breq	.+12     	; 0x1c32 <__clzsi2+0x36>
    1c26:	28 f0       	brcs	.+10     	; 0x1c32 <__clzsi2+0x36>
    1c28:	88 e0       	ldi	r24, 0x08	; 8
    1c2a:	90 e0       	ldi	r25, 0x00	; 0
    1c2c:	a0 e0       	ldi	r26, 0x00	; 0
    1c2e:	b0 e0       	ldi	r27, 0x00	; 0
    1c30:	17 c0       	rjmp	.+46     	; 0x1c60 <__clzsi2+0x64>
    1c32:	80 e0       	ldi	r24, 0x00	; 0
    1c34:	90 e0       	ldi	r25, 0x00	; 0
    1c36:	a0 e0       	ldi	r26, 0x00	; 0
    1c38:	b0 e0       	ldi	r27, 0x00	; 0
    1c3a:	12 c0       	rjmp	.+36     	; 0x1c60 <__clzsi2+0x64>
    1c3c:	80 e0       	ldi	r24, 0x00	; 0
    1c3e:	e8 16       	cp	r14, r24
    1c40:	80 e0       	ldi	r24, 0x00	; 0
    1c42:	f8 06       	cpc	r15, r24
    1c44:	80 e0       	ldi	r24, 0x00	; 0
    1c46:	08 07       	cpc	r16, r24
    1c48:	81 e0       	ldi	r24, 0x01	; 1
    1c4a:	18 07       	cpc	r17, r24
    1c4c:	28 f0       	brcs	.+10     	; 0x1c58 <__clzsi2+0x5c>
    1c4e:	88 e1       	ldi	r24, 0x18	; 24
    1c50:	90 e0       	ldi	r25, 0x00	; 0
    1c52:	a0 e0       	ldi	r26, 0x00	; 0
    1c54:	b0 e0       	ldi	r27, 0x00	; 0
    1c56:	04 c0       	rjmp	.+8      	; 0x1c60 <__clzsi2+0x64>
    1c58:	80 e1       	ldi	r24, 0x10	; 16
    1c5a:	90 e0       	ldi	r25, 0x00	; 0
    1c5c:	a0 e0       	ldi	r26, 0x00	; 0
    1c5e:	b0 e0       	ldi	r27, 0x00	; 0
    1c60:	20 e2       	ldi	r18, 0x20	; 32
    1c62:	30 e0       	ldi	r19, 0x00	; 0
    1c64:	40 e0       	ldi	r20, 0x00	; 0
    1c66:	50 e0       	ldi	r21, 0x00	; 0
    1c68:	28 1b       	sub	r18, r24
    1c6a:	39 0b       	sbc	r19, r25
    1c6c:	4a 0b       	sbc	r20, r26
    1c6e:	5b 0b       	sbc	r21, r27
    1c70:	04 c0       	rjmp	.+8      	; 0x1c7a <__clzsi2+0x7e>
    1c72:	16 95       	lsr	r17
    1c74:	07 95       	ror	r16
    1c76:	f7 94       	ror	r15
    1c78:	e7 94       	ror	r14
    1c7a:	8a 95       	dec	r24
    1c7c:	d2 f7       	brpl	.-12     	; 0x1c72 <__clzsi2+0x76>
    1c7e:	f7 01       	movw	r30, r14
    1c80:	ef 5b       	subi	r30, 0xBF	; 191
    1c82:	fe 4f       	sbci	r31, 0xFE	; 254
    1c84:	80 81       	ld	r24, Z
    1c86:	28 1b       	sub	r18, r24
    1c88:	31 09       	sbc	r19, r1
    1c8a:	41 09       	sbc	r20, r1
    1c8c:	51 09       	sbc	r21, r1
    1c8e:	c9 01       	movw	r24, r18
    1c90:	1f 91       	pop	r17
    1c92:	0f 91       	pop	r16
    1c94:	ff 90       	pop	r15
    1c96:	ef 90       	pop	r14
    1c98:	08 95       	ret

00001c9a <__pack_f>:
    1c9a:	df 92       	push	r13
    1c9c:	ef 92       	push	r14
    1c9e:	ff 92       	push	r15
    1ca0:	0f 93       	push	r16
    1ca2:	1f 93       	push	r17
    1ca4:	fc 01       	movw	r30, r24
    1ca6:	e4 80       	ldd	r14, Z+4	; 0x04
    1ca8:	f5 80       	ldd	r15, Z+5	; 0x05
    1caa:	06 81       	ldd	r16, Z+6	; 0x06
    1cac:	17 81       	ldd	r17, Z+7	; 0x07
    1cae:	d1 80       	ldd	r13, Z+1	; 0x01
    1cb0:	80 81       	ld	r24, Z
    1cb2:	82 30       	cpi	r24, 0x02	; 2
    1cb4:	48 f4       	brcc	.+18     	; 0x1cc8 <__pack_f+0x2e>
    1cb6:	80 e0       	ldi	r24, 0x00	; 0
    1cb8:	90 e0       	ldi	r25, 0x00	; 0
    1cba:	a0 e1       	ldi	r26, 0x10	; 16
    1cbc:	b0 e0       	ldi	r27, 0x00	; 0
    1cbe:	e8 2a       	or	r14, r24
    1cc0:	f9 2a       	or	r15, r25
    1cc2:	0a 2b       	or	r16, r26
    1cc4:	1b 2b       	or	r17, r27
    1cc6:	a5 c0       	rjmp	.+330    	; 0x1e12 <__pack_f+0x178>
    1cc8:	84 30       	cpi	r24, 0x04	; 4
    1cca:	09 f4       	brne	.+2      	; 0x1cce <__pack_f+0x34>
    1ccc:	9f c0       	rjmp	.+318    	; 0x1e0c <__pack_f+0x172>
    1cce:	82 30       	cpi	r24, 0x02	; 2
    1cd0:	21 f4       	brne	.+8      	; 0x1cda <__pack_f+0x40>
    1cd2:	ee 24       	eor	r14, r14
    1cd4:	ff 24       	eor	r15, r15
    1cd6:	87 01       	movw	r16, r14
    1cd8:	05 c0       	rjmp	.+10     	; 0x1ce4 <__pack_f+0x4a>
    1cda:	e1 14       	cp	r14, r1
    1cdc:	f1 04       	cpc	r15, r1
    1cde:	01 05       	cpc	r16, r1
    1ce0:	11 05       	cpc	r17, r1
    1ce2:	19 f4       	brne	.+6      	; 0x1cea <__pack_f+0x50>
    1ce4:	e0 e0       	ldi	r30, 0x00	; 0
    1ce6:	f0 e0       	ldi	r31, 0x00	; 0
    1ce8:	96 c0       	rjmp	.+300    	; 0x1e16 <__pack_f+0x17c>
    1cea:	62 81       	ldd	r22, Z+2	; 0x02
    1cec:	73 81       	ldd	r23, Z+3	; 0x03
    1cee:	9f ef       	ldi	r25, 0xFF	; 255
    1cf0:	62 38       	cpi	r22, 0x82	; 130
    1cf2:	79 07       	cpc	r23, r25
    1cf4:	0c f0       	brlt	.+2      	; 0x1cf8 <__pack_f+0x5e>
    1cf6:	5b c0       	rjmp	.+182    	; 0x1dae <__pack_f+0x114>
    1cf8:	22 e8       	ldi	r18, 0x82	; 130
    1cfa:	3f ef       	ldi	r19, 0xFF	; 255
    1cfc:	26 1b       	sub	r18, r22
    1cfe:	37 0b       	sbc	r19, r23
    1d00:	2a 31       	cpi	r18, 0x1A	; 26
    1d02:	31 05       	cpc	r19, r1
    1d04:	2c f0       	brlt	.+10     	; 0x1d10 <__pack_f+0x76>
    1d06:	20 e0       	ldi	r18, 0x00	; 0
    1d08:	30 e0       	ldi	r19, 0x00	; 0
    1d0a:	40 e0       	ldi	r20, 0x00	; 0
    1d0c:	50 e0       	ldi	r21, 0x00	; 0
    1d0e:	2a c0       	rjmp	.+84     	; 0x1d64 <__pack_f+0xca>
    1d10:	b8 01       	movw	r22, r16
    1d12:	a7 01       	movw	r20, r14
    1d14:	02 2e       	mov	r0, r18
    1d16:	04 c0       	rjmp	.+8      	; 0x1d20 <__pack_f+0x86>
    1d18:	76 95       	lsr	r23
    1d1a:	67 95       	ror	r22
    1d1c:	57 95       	ror	r21
    1d1e:	47 95       	ror	r20
    1d20:	0a 94       	dec	r0
    1d22:	d2 f7       	brpl	.-12     	; 0x1d18 <__pack_f+0x7e>
    1d24:	81 e0       	ldi	r24, 0x01	; 1
    1d26:	90 e0       	ldi	r25, 0x00	; 0
    1d28:	a0 e0       	ldi	r26, 0x00	; 0
    1d2a:	b0 e0       	ldi	r27, 0x00	; 0
    1d2c:	04 c0       	rjmp	.+8      	; 0x1d36 <__pack_f+0x9c>
    1d2e:	88 0f       	add	r24, r24
    1d30:	99 1f       	adc	r25, r25
    1d32:	aa 1f       	adc	r26, r26
    1d34:	bb 1f       	adc	r27, r27
    1d36:	2a 95       	dec	r18
    1d38:	d2 f7       	brpl	.-12     	; 0x1d2e <__pack_f+0x94>
    1d3a:	01 97       	sbiw	r24, 0x01	; 1
    1d3c:	a1 09       	sbc	r26, r1
    1d3e:	b1 09       	sbc	r27, r1
    1d40:	8e 21       	and	r24, r14
    1d42:	9f 21       	and	r25, r15
    1d44:	a0 23       	and	r26, r16
    1d46:	b1 23       	and	r27, r17
    1d48:	00 97       	sbiw	r24, 0x00	; 0
    1d4a:	a1 05       	cpc	r26, r1
    1d4c:	b1 05       	cpc	r27, r1
    1d4e:	21 f0       	breq	.+8      	; 0x1d58 <__pack_f+0xbe>
    1d50:	81 e0       	ldi	r24, 0x01	; 1
    1d52:	90 e0       	ldi	r25, 0x00	; 0
    1d54:	a0 e0       	ldi	r26, 0x00	; 0
    1d56:	b0 e0       	ldi	r27, 0x00	; 0
    1d58:	9a 01       	movw	r18, r20
    1d5a:	ab 01       	movw	r20, r22
    1d5c:	28 2b       	or	r18, r24
    1d5e:	39 2b       	or	r19, r25
    1d60:	4a 2b       	or	r20, r26
    1d62:	5b 2b       	or	r21, r27
    1d64:	da 01       	movw	r26, r20
    1d66:	c9 01       	movw	r24, r18
    1d68:	8f 77       	andi	r24, 0x7F	; 127
    1d6a:	90 70       	andi	r25, 0x00	; 0
    1d6c:	a0 70       	andi	r26, 0x00	; 0
    1d6e:	b0 70       	andi	r27, 0x00	; 0
    1d70:	80 34       	cpi	r24, 0x40	; 64
    1d72:	91 05       	cpc	r25, r1
    1d74:	a1 05       	cpc	r26, r1
    1d76:	b1 05       	cpc	r27, r1
    1d78:	39 f4       	brne	.+14     	; 0x1d88 <__pack_f+0xee>
    1d7a:	27 ff       	sbrs	r18, 7
    1d7c:	09 c0       	rjmp	.+18     	; 0x1d90 <__pack_f+0xf6>
    1d7e:	20 5c       	subi	r18, 0xC0	; 192
    1d80:	3f 4f       	sbci	r19, 0xFF	; 255
    1d82:	4f 4f       	sbci	r20, 0xFF	; 255
    1d84:	5f 4f       	sbci	r21, 0xFF	; 255
    1d86:	04 c0       	rjmp	.+8      	; 0x1d90 <__pack_f+0xf6>
    1d88:	21 5c       	subi	r18, 0xC1	; 193
    1d8a:	3f 4f       	sbci	r19, 0xFF	; 255
    1d8c:	4f 4f       	sbci	r20, 0xFF	; 255
    1d8e:	5f 4f       	sbci	r21, 0xFF	; 255
    1d90:	e0 e0       	ldi	r30, 0x00	; 0
    1d92:	f0 e0       	ldi	r31, 0x00	; 0
    1d94:	20 30       	cpi	r18, 0x00	; 0
    1d96:	a0 e0       	ldi	r26, 0x00	; 0
    1d98:	3a 07       	cpc	r19, r26
    1d9a:	a0 e0       	ldi	r26, 0x00	; 0
    1d9c:	4a 07       	cpc	r20, r26
    1d9e:	a0 e4       	ldi	r26, 0x40	; 64
    1da0:	5a 07       	cpc	r21, r26
    1da2:	10 f0       	brcs	.+4      	; 0x1da8 <__pack_f+0x10e>
    1da4:	e1 e0       	ldi	r30, 0x01	; 1
    1da6:	f0 e0       	ldi	r31, 0x00	; 0
    1da8:	79 01       	movw	r14, r18
    1daa:	8a 01       	movw	r16, r20
    1dac:	27 c0       	rjmp	.+78     	; 0x1dfc <__pack_f+0x162>
    1dae:	60 38       	cpi	r22, 0x80	; 128
    1db0:	71 05       	cpc	r23, r1
    1db2:	64 f5       	brge	.+88     	; 0x1e0c <__pack_f+0x172>
    1db4:	fb 01       	movw	r30, r22
    1db6:	e1 58       	subi	r30, 0x81	; 129
    1db8:	ff 4f       	sbci	r31, 0xFF	; 255
    1dba:	d8 01       	movw	r26, r16
    1dbc:	c7 01       	movw	r24, r14
    1dbe:	8f 77       	andi	r24, 0x7F	; 127
    1dc0:	90 70       	andi	r25, 0x00	; 0
    1dc2:	a0 70       	andi	r26, 0x00	; 0
    1dc4:	b0 70       	andi	r27, 0x00	; 0
    1dc6:	80 34       	cpi	r24, 0x40	; 64
    1dc8:	91 05       	cpc	r25, r1
    1dca:	a1 05       	cpc	r26, r1
    1dcc:	b1 05       	cpc	r27, r1
    1dce:	39 f4       	brne	.+14     	; 0x1dde <__pack_f+0x144>
    1dd0:	e7 fe       	sbrs	r14, 7
    1dd2:	0d c0       	rjmp	.+26     	; 0x1dee <__pack_f+0x154>
    1dd4:	80 e4       	ldi	r24, 0x40	; 64
    1dd6:	90 e0       	ldi	r25, 0x00	; 0
    1dd8:	a0 e0       	ldi	r26, 0x00	; 0
    1dda:	b0 e0       	ldi	r27, 0x00	; 0
    1ddc:	04 c0       	rjmp	.+8      	; 0x1de6 <__pack_f+0x14c>
    1dde:	8f e3       	ldi	r24, 0x3F	; 63
    1de0:	90 e0       	ldi	r25, 0x00	; 0
    1de2:	a0 e0       	ldi	r26, 0x00	; 0
    1de4:	b0 e0       	ldi	r27, 0x00	; 0
    1de6:	e8 0e       	add	r14, r24
    1de8:	f9 1e       	adc	r15, r25
    1dea:	0a 1f       	adc	r16, r26
    1dec:	1b 1f       	adc	r17, r27
    1dee:	17 ff       	sbrs	r17, 7
    1df0:	05 c0       	rjmp	.+10     	; 0x1dfc <__pack_f+0x162>
    1df2:	16 95       	lsr	r17
    1df4:	07 95       	ror	r16
    1df6:	f7 94       	ror	r15
    1df8:	e7 94       	ror	r14
    1dfa:	31 96       	adiw	r30, 0x01	; 1
    1dfc:	87 e0       	ldi	r24, 0x07	; 7
    1dfe:	16 95       	lsr	r17
    1e00:	07 95       	ror	r16
    1e02:	f7 94       	ror	r15
    1e04:	e7 94       	ror	r14
    1e06:	8a 95       	dec	r24
    1e08:	d1 f7       	brne	.-12     	; 0x1dfe <__pack_f+0x164>
    1e0a:	05 c0       	rjmp	.+10     	; 0x1e16 <__pack_f+0x17c>
    1e0c:	ee 24       	eor	r14, r14
    1e0e:	ff 24       	eor	r15, r15
    1e10:	87 01       	movw	r16, r14
    1e12:	ef ef       	ldi	r30, 0xFF	; 255
    1e14:	f0 e0       	ldi	r31, 0x00	; 0
    1e16:	6e 2f       	mov	r22, r30
    1e18:	67 95       	ror	r22
    1e1a:	66 27       	eor	r22, r22
    1e1c:	67 95       	ror	r22
    1e1e:	90 2f       	mov	r25, r16
    1e20:	9f 77       	andi	r25, 0x7F	; 127
    1e22:	d7 94       	ror	r13
    1e24:	dd 24       	eor	r13, r13
    1e26:	d7 94       	ror	r13
    1e28:	8e 2f       	mov	r24, r30
    1e2a:	86 95       	lsr	r24
    1e2c:	49 2f       	mov	r20, r25
    1e2e:	46 2b       	or	r20, r22
    1e30:	58 2f       	mov	r21, r24
    1e32:	5d 29       	or	r21, r13
    1e34:	b7 01       	movw	r22, r14
    1e36:	ca 01       	movw	r24, r20
    1e38:	1f 91       	pop	r17
    1e3a:	0f 91       	pop	r16
    1e3c:	ff 90       	pop	r15
    1e3e:	ef 90       	pop	r14
    1e40:	df 90       	pop	r13
    1e42:	08 95       	ret

00001e44 <__unpack_f>:
    1e44:	fc 01       	movw	r30, r24
    1e46:	db 01       	movw	r26, r22
    1e48:	40 81       	ld	r20, Z
    1e4a:	51 81       	ldd	r21, Z+1	; 0x01
    1e4c:	22 81       	ldd	r18, Z+2	; 0x02
    1e4e:	62 2f       	mov	r22, r18
    1e50:	6f 77       	andi	r22, 0x7F	; 127
    1e52:	70 e0       	ldi	r23, 0x00	; 0
    1e54:	22 1f       	adc	r18, r18
    1e56:	22 27       	eor	r18, r18
    1e58:	22 1f       	adc	r18, r18
    1e5a:	93 81       	ldd	r25, Z+3	; 0x03
    1e5c:	89 2f       	mov	r24, r25
    1e5e:	88 0f       	add	r24, r24
    1e60:	82 2b       	or	r24, r18
    1e62:	28 2f       	mov	r18, r24
    1e64:	30 e0       	ldi	r19, 0x00	; 0
    1e66:	99 1f       	adc	r25, r25
    1e68:	99 27       	eor	r25, r25
    1e6a:	99 1f       	adc	r25, r25
    1e6c:	11 96       	adiw	r26, 0x01	; 1
    1e6e:	9c 93       	st	X, r25
    1e70:	11 97       	sbiw	r26, 0x01	; 1
    1e72:	21 15       	cp	r18, r1
    1e74:	31 05       	cpc	r19, r1
    1e76:	a9 f5       	brne	.+106    	; 0x1ee2 <__unpack_f+0x9e>
    1e78:	41 15       	cp	r20, r1
    1e7a:	51 05       	cpc	r21, r1
    1e7c:	61 05       	cpc	r22, r1
    1e7e:	71 05       	cpc	r23, r1
    1e80:	11 f4       	brne	.+4      	; 0x1e86 <__unpack_f+0x42>
    1e82:	82 e0       	ldi	r24, 0x02	; 2
    1e84:	37 c0       	rjmp	.+110    	; 0x1ef4 <__unpack_f+0xb0>
    1e86:	82 e8       	ldi	r24, 0x82	; 130
    1e88:	9f ef       	ldi	r25, 0xFF	; 255
    1e8a:	13 96       	adiw	r26, 0x03	; 3
    1e8c:	9c 93       	st	X, r25
    1e8e:	8e 93       	st	-X, r24
    1e90:	12 97       	sbiw	r26, 0x02	; 2
    1e92:	9a 01       	movw	r18, r20
    1e94:	ab 01       	movw	r20, r22
    1e96:	67 e0       	ldi	r22, 0x07	; 7
    1e98:	22 0f       	add	r18, r18
    1e9a:	33 1f       	adc	r19, r19
    1e9c:	44 1f       	adc	r20, r20
    1e9e:	55 1f       	adc	r21, r21
    1ea0:	6a 95       	dec	r22
    1ea2:	d1 f7       	brne	.-12     	; 0x1e98 <__unpack_f+0x54>
    1ea4:	83 e0       	ldi	r24, 0x03	; 3
    1ea6:	8c 93       	st	X, r24
    1ea8:	0d c0       	rjmp	.+26     	; 0x1ec4 <__unpack_f+0x80>
    1eaa:	22 0f       	add	r18, r18
    1eac:	33 1f       	adc	r19, r19
    1eae:	44 1f       	adc	r20, r20
    1eb0:	55 1f       	adc	r21, r21
    1eb2:	12 96       	adiw	r26, 0x02	; 2
    1eb4:	8d 91       	ld	r24, X+
    1eb6:	9c 91       	ld	r25, X
    1eb8:	13 97       	sbiw	r26, 0x03	; 3
    1eba:	01 97       	sbiw	r24, 0x01	; 1
    1ebc:	13 96       	adiw	r26, 0x03	; 3
    1ebe:	9c 93       	st	X, r25
    1ec0:	8e 93       	st	-X, r24
    1ec2:	12 97       	sbiw	r26, 0x02	; 2
    1ec4:	20 30       	cpi	r18, 0x00	; 0
    1ec6:	80 e0       	ldi	r24, 0x00	; 0
    1ec8:	38 07       	cpc	r19, r24
    1eca:	80 e0       	ldi	r24, 0x00	; 0
    1ecc:	48 07       	cpc	r20, r24
    1ece:	80 e4       	ldi	r24, 0x40	; 64
    1ed0:	58 07       	cpc	r21, r24
    1ed2:	58 f3       	brcs	.-42     	; 0x1eaa <__unpack_f+0x66>
    1ed4:	14 96       	adiw	r26, 0x04	; 4
    1ed6:	2d 93       	st	X+, r18
    1ed8:	3d 93       	st	X+, r19
    1eda:	4d 93       	st	X+, r20
    1edc:	5c 93       	st	X, r21
    1ede:	17 97       	sbiw	r26, 0x07	; 7
    1ee0:	08 95       	ret
    1ee2:	2f 3f       	cpi	r18, 0xFF	; 255
    1ee4:	31 05       	cpc	r19, r1
    1ee6:	79 f4       	brne	.+30     	; 0x1f06 <__unpack_f+0xc2>
    1ee8:	41 15       	cp	r20, r1
    1eea:	51 05       	cpc	r21, r1
    1eec:	61 05       	cpc	r22, r1
    1eee:	71 05       	cpc	r23, r1
    1ef0:	19 f4       	brne	.+6      	; 0x1ef8 <__unpack_f+0xb4>
    1ef2:	84 e0       	ldi	r24, 0x04	; 4
    1ef4:	8c 93       	st	X, r24
    1ef6:	08 95       	ret
    1ef8:	64 ff       	sbrs	r22, 4
    1efa:	03 c0       	rjmp	.+6      	; 0x1f02 <__unpack_f+0xbe>
    1efc:	81 e0       	ldi	r24, 0x01	; 1
    1efe:	8c 93       	st	X, r24
    1f00:	12 c0       	rjmp	.+36     	; 0x1f26 <__unpack_f+0xe2>
    1f02:	1c 92       	st	X, r1
    1f04:	10 c0       	rjmp	.+32     	; 0x1f26 <__unpack_f+0xe2>
    1f06:	2f 57       	subi	r18, 0x7F	; 127
    1f08:	30 40       	sbci	r19, 0x00	; 0
    1f0a:	13 96       	adiw	r26, 0x03	; 3
    1f0c:	3c 93       	st	X, r19
    1f0e:	2e 93       	st	-X, r18
    1f10:	12 97       	sbiw	r26, 0x02	; 2
    1f12:	83 e0       	ldi	r24, 0x03	; 3
    1f14:	8c 93       	st	X, r24
    1f16:	87 e0       	ldi	r24, 0x07	; 7
    1f18:	44 0f       	add	r20, r20
    1f1a:	55 1f       	adc	r21, r21
    1f1c:	66 1f       	adc	r22, r22
    1f1e:	77 1f       	adc	r23, r23
    1f20:	8a 95       	dec	r24
    1f22:	d1 f7       	brne	.-12     	; 0x1f18 <__unpack_f+0xd4>
    1f24:	70 64       	ori	r23, 0x40	; 64
    1f26:	14 96       	adiw	r26, 0x04	; 4
    1f28:	4d 93       	st	X+, r20
    1f2a:	5d 93       	st	X+, r21
    1f2c:	6d 93       	st	X+, r22
    1f2e:	7c 93       	st	X, r23
    1f30:	17 97       	sbiw	r26, 0x07	; 7
    1f32:	08 95       	ret

00001f34 <__udivmodqi4>:
    1f34:	99 1b       	sub	r25, r25
    1f36:	79 e0       	ldi	r23, 0x09	; 9
    1f38:	04 c0       	rjmp	.+8      	; 0x1f42 <__udivmodqi4_ep>

00001f3a <__udivmodqi4_loop>:
    1f3a:	99 1f       	adc	r25, r25
    1f3c:	96 17       	cp	r25, r22
    1f3e:	08 f0       	brcs	.+2      	; 0x1f42 <__udivmodqi4_ep>
    1f40:	96 1b       	sub	r25, r22

00001f42 <__udivmodqi4_ep>:
    1f42:	88 1f       	adc	r24, r24
    1f44:	7a 95       	dec	r23
    1f46:	c9 f7       	brne	.-14     	; 0x1f3a <__udivmodqi4_loop>
    1f48:	80 95       	com	r24
    1f4a:	08 95       	ret

00001f4c <__udivmodhi4>:
    1f4c:	aa 1b       	sub	r26, r26
    1f4e:	bb 1b       	sub	r27, r27
    1f50:	51 e1       	ldi	r21, 0x11	; 17
    1f52:	07 c0       	rjmp	.+14     	; 0x1f62 <__udivmodhi4_ep>

00001f54 <__udivmodhi4_loop>:
    1f54:	aa 1f       	adc	r26, r26
    1f56:	bb 1f       	adc	r27, r27
    1f58:	a6 17       	cp	r26, r22
    1f5a:	b7 07       	cpc	r27, r23
    1f5c:	10 f0       	brcs	.+4      	; 0x1f62 <__udivmodhi4_ep>
    1f5e:	a6 1b       	sub	r26, r22
    1f60:	b7 0b       	sbc	r27, r23

00001f62 <__udivmodhi4_ep>:
    1f62:	88 1f       	adc	r24, r24
    1f64:	99 1f       	adc	r25, r25
    1f66:	5a 95       	dec	r21
    1f68:	a9 f7       	brne	.-22     	; 0x1f54 <__udivmodhi4_loop>
    1f6a:	80 95       	com	r24
    1f6c:	90 95       	com	r25
    1f6e:	bc 01       	movw	r22, r24
    1f70:	cd 01       	movw	r24, r26
    1f72:	08 95       	ret

00001f74 <__divmodhi4>:
    1f74:	97 fb       	bst	r25, 7
    1f76:	09 2e       	mov	r0, r25
    1f78:	07 26       	eor	r0, r23
    1f7a:	0a d0       	rcall	.+20     	; 0x1f90 <__divmodhi4_neg1>
    1f7c:	77 fd       	sbrc	r23, 7
    1f7e:	04 d0       	rcall	.+8      	; 0x1f88 <__divmodhi4_neg2>
    1f80:	e5 df       	rcall	.-54     	; 0x1f4c <__udivmodhi4>
    1f82:	06 d0       	rcall	.+12     	; 0x1f90 <__divmodhi4_neg1>
    1f84:	00 20       	and	r0, r0
    1f86:	1a f4       	brpl	.+6      	; 0x1f8e <__divmodhi4_exit>

00001f88 <__divmodhi4_neg2>:
    1f88:	70 95       	com	r23
    1f8a:	61 95       	neg	r22
    1f8c:	7f 4f       	sbci	r23, 0xFF	; 255

00001f8e <__divmodhi4_exit>:
    1f8e:	08 95       	ret

00001f90 <__divmodhi4_neg1>:
    1f90:	f6 f7       	brtc	.-4      	; 0x1f8e <__divmodhi4_exit>
    1f92:	90 95       	com	r25
    1f94:	81 95       	neg	r24
    1f96:	9f 4f       	sbci	r25, 0xFF	; 255
    1f98:	08 95       	ret

00001f9a <__prologue_saves__>:
    1f9a:	2f 92       	push	r2
    1f9c:	3f 92       	push	r3
    1f9e:	4f 92       	push	r4
    1fa0:	5f 92       	push	r5
    1fa2:	6f 92       	push	r6
    1fa4:	7f 92       	push	r7
    1fa6:	8f 92       	push	r8
    1fa8:	9f 92       	push	r9
    1faa:	af 92       	push	r10
    1fac:	bf 92       	push	r11
    1fae:	cf 92       	push	r12
    1fb0:	df 92       	push	r13
    1fb2:	ef 92       	push	r14
    1fb4:	ff 92       	push	r15
    1fb6:	0f 93       	push	r16
    1fb8:	1f 93       	push	r17
    1fba:	cf 93       	push	r28
    1fbc:	df 93       	push	r29
    1fbe:	cd b7       	in	r28, 0x3d	; 61
    1fc0:	de b7       	in	r29, 0x3e	; 62
    1fc2:	ca 1b       	sub	r28, r26
    1fc4:	db 0b       	sbc	r29, r27
    1fc6:	0f b6       	in	r0, 0x3f	; 63
    1fc8:	f8 94       	cli
    1fca:	de bf       	out	0x3e, r29	; 62
    1fcc:	0f be       	out	0x3f, r0	; 63
    1fce:	cd bf       	out	0x3d, r28	; 61
    1fd0:	09 94       	ijmp

00001fd2 <__epilogue_restores__>:
    1fd2:	2a 88       	ldd	r2, Y+18	; 0x12
    1fd4:	39 88       	ldd	r3, Y+17	; 0x11
    1fd6:	48 88       	ldd	r4, Y+16	; 0x10
    1fd8:	5f 84       	ldd	r5, Y+15	; 0x0f
    1fda:	6e 84       	ldd	r6, Y+14	; 0x0e
    1fdc:	7d 84       	ldd	r7, Y+13	; 0x0d
    1fde:	8c 84       	ldd	r8, Y+12	; 0x0c
    1fe0:	9b 84       	ldd	r9, Y+11	; 0x0b
    1fe2:	aa 84       	ldd	r10, Y+10	; 0x0a
    1fe4:	b9 84       	ldd	r11, Y+9	; 0x09
    1fe6:	c8 84       	ldd	r12, Y+8	; 0x08
    1fe8:	df 80       	ldd	r13, Y+7	; 0x07
    1fea:	ee 80       	ldd	r14, Y+6	; 0x06
    1fec:	fd 80       	ldd	r15, Y+5	; 0x05
    1fee:	0c 81       	ldd	r16, Y+4	; 0x04
    1ff0:	1b 81       	ldd	r17, Y+3	; 0x03
    1ff2:	aa 81       	ldd	r26, Y+2	; 0x02
    1ff4:	b9 81       	ldd	r27, Y+1	; 0x01
    1ff6:	ce 0f       	add	r28, r30
    1ff8:	d1 1d       	adc	r29, r1
    1ffa:	0f b6       	in	r0, 0x3f	; 63
    1ffc:	f8 94       	cli
    1ffe:	de bf       	out	0x3e, r29	; 62
    2000:	0f be       	out	0x3f, r0	; 63
    2002:	cd bf       	out	0x3d, r28	; 61
    2004:	ed 01       	movw	r28, r26
    2006:	08 95       	ret

00002008 <dtostrf>:
    2008:	ef 92       	push	r14
    200a:	ff 92       	push	r15
    200c:	0f 93       	push	r16
    200e:	1f 93       	push	r17
    2010:	f2 2f       	mov	r31, r18
    2012:	f0 2e       	mov	r15, r16
    2014:	47 fd       	sbrc	r20, 7
    2016:	02 c0       	rjmp	.+4      	; 0x201c <dtostrf+0x14>
    2018:	e4 e0       	ldi	r30, 0x04	; 4
    201a:	01 c0       	rjmp	.+2      	; 0x201e <dtostrf+0x16>
    201c:	e4 e1       	ldi	r30, 0x14	; 20
    201e:	24 2f       	mov	r18, r20
    2020:	33 27       	eor	r19, r19
    2022:	27 fd       	sbrc	r18, 7
    2024:	30 95       	com	r19
    2026:	37 ff       	sbrs	r19, 7
    2028:	03 c0       	rjmp	.+6      	; 0x2030 <dtostrf+0x28>
    202a:	30 95       	com	r19
    202c:	21 95       	neg	r18
    202e:	3f 4f       	sbci	r19, 0xFF	; 255
    2030:	4f 2d       	mov	r20, r15
    2032:	51 2f       	mov	r21, r17
    2034:	0f 2f       	mov	r16, r31
    2036:	ee 2e       	mov	r14, r30
    2038:	0e 94 55 10 	call	0x20aa	; 0x20aa <dtoa_prf>
    203c:	8f 2d       	mov	r24, r15
    203e:	91 2f       	mov	r25, r17
    2040:	1f 91       	pop	r17
    2042:	0f 91       	pop	r16
    2044:	ff 90       	pop	r15
    2046:	ef 90       	pop	r14
    2048:	08 95       	ret

0000204a <strcpy>:
    204a:	fb 01       	movw	r30, r22
    204c:	dc 01       	movw	r26, r24
    204e:	01 90       	ld	r0, Z+
    2050:	0d 92       	st	X+, r0
    2052:	00 20       	and	r0, r0
    2054:	e1 f7       	brne	.-8      	; 0x204e <strcpy+0x4>
    2056:	08 95       	ret

00002058 <fputs>:
    2058:	ef 92       	push	r14
    205a:	ff 92       	push	r15
    205c:	0f 93       	push	r16
    205e:	1f 93       	push	r17
    2060:	cf 93       	push	r28
    2062:	df 93       	push	r29
    2064:	7c 01       	movw	r14, r24
    2066:	8b 01       	movw	r16, r22
    2068:	db 01       	movw	r26, r22
    206a:	13 96       	adiw	r26, 0x03	; 3
    206c:	8c 91       	ld	r24, X
    206e:	81 fd       	sbrc	r24, 1
    2070:	03 c0       	rjmp	.+6      	; 0x2078 <fputs+0x20>
    2072:	cf ef       	ldi	r28, 0xFF	; 255
    2074:	df ef       	ldi	r29, 0xFF	; 255
    2076:	13 c0       	rjmp	.+38     	; 0x209e <fputs+0x46>
    2078:	c0 e0       	ldi	r28, 0x00	; 0
    207a:	d0 e0       	ldi	r29, 0x00	; 0
    207c:	0b c0       	rjmp	.+22     	; 0x2094 <fputs+0x3c>
    207e:	d8 01       	movw	r26, r16
    2080:	18 96       	adiw	r26, 0x08	; 8
    2082:	ed 91       	ld	r30, X+
    2084:	fc 91       	ld	r31, X
    2086:	19 97       	sbiw	r26, 0x09	; 9
    2088:	b8 01       	movw	r22, r16
    208a:	09 95       	icall
    208c:	89 2b       	or	r24, r25
    208e:	11 f0       	breq	.+4      	; 0x2094 <fputs+0x3c>
    2090:	cf ef       	ldi	r28, 0xFF	; 255
    2092:	df ef       	ldi	r29, 0xFF	; 255
    2094:	f7 01       	movw	r30, r14
    2096:	81 91       	ld	r24, Z+
    2098:	7f 01       	movw	r14, r30
    209a:	88 23       	and	r24, r24
    209c:	81 f7       	brne	.-32     	; 0x207e <fputs+0x26>
    209e:	ce 01       	movw	r24, r28
    20a0:	cd b7       	in	r28, 0x3d	; 61
    20a2:	de b7       	in	r29, 0x3e	; 62
    20a4:	e6 e0       	ldi	r30, 0x06	; 6
    20a6:	0c 94 f5 0f 	jmp	0x1fea	; 0x1fea <__epilogue_restores__+0x18>

000020aa <dtoa_prf>:
    20aa:	a9 e0       	ldi	r26, 0x09	; 9
    20ac:	b0 e0       	ldi	r27, 0x00	; 0
    20ae:	eb e5       	ldi	r30, 0x5B	; 91
    20b0:	f0 e1       	ldi	r31, 0x10	; 16
    20b2:	0c 94 d1 0f 	jmp	0x1fa2	; 0x1fa2 <__prologue_saves__+0x8>
    20b6:	6a 01       	movw	r12, r20
    20b8:	12 2f       	mov	r17, r18
    20ba:	a0 2e       	mov	r10, r16
    20bc:	be 2c       	mov	r11, r14
    20be:	2b e3       	ldi	r18, 0x3B	; 59
    20c0:	20 17       	cp	r18, r16
    20c2:	18 f4       	brcc	.+6      	; 0x20ca <dtoa_prf+0x20>
    20c4:	2c e3       	ldi	r18, 0x3C	; 60
    20c6:	92 2e       	mov	r9, r18
    20c8:	02 c0       	rjmp	.+4      	; 0x20ce <dtoa_prf+0x24>
    20ca:	90 2e       	mov	r9, r16
    20cc:	93 94       	inc	r9
    20ce:	ae 01       	movw	r20, r28
    20d0:	4f 5f       	subi	r20, 0xFF	; 255
    20d2:	5f 4f       	sbci	r21, 0xFF	; 255
    20d4:	27 e0       	ldi	r18, 0x07	; 7
    20d6:	09 2d       	mov	r16, r9
    20d8:	0e 94 b7 11 	call	0x236e	; 0x236e <__ftoa_engine>
    20dc:	bc 01       	movw	r22, r24
    20de:	89 81       	ldd	r24, Y+1	; 0x01
    20e0:	e8 2e       	mov	r14, r24
    20e2:	ff 24       	eor	r15, r15
    20e4:	c7 01       	movw	r24, r14
    20e6:	89 70       	andi	r24, 0x09	; 9
    20e8:	90 70       	andi	r25, 0x00	; 0
    20ea:	01 97       	sbiw	r24, 0x01	; 1
    20ec:	11 f4       	brne	.+4      	; 0x20f2 <dtoa_prf+0x48>
    20ee:	ad e2       	ldi	r26, 0x2D	; 45
    20f0:	09 c0       	rjmp	.+18     	; 0x2104 <dtoa_prf+0x5a>
    20f2:	b1 fe       	sbrs	r11, 1
    20f4:	02 c0       	rjmp	.+4      	; 0x20fa <dtoa_prf+0x50>
    20f6:	ab e2       	ldi	r26, 0x2B	; 43
    20f8:	05 c0       	rjmp	.+10     	; 0x2104 <dtoa_prf+0x5a>
    20fa:	b0 fc       	sbrc	r11, 0
    20fc:	02 c0       	rjmp	.+4      	; 0x2102 <dtoa_prf+0x58>
    20fe:	a0 e0       	ldi	r26, 0x00	; 0
    2100:	01 c0       	rjmp	.+2      	; 0x2104 <dtoa_prf+0x5a>
    2102:	a0 e2       	ldi	r26, 0x20	; 32
    2104:	e3 fe       	sbrs	r14, 3
    2106:	3b c0       	rjmp	.+118    	; 0x217e <dtoa_prf+0xd4>
    2108:	aa 23       	and	r26, r26
    210a:	11 f4       	brne	.+4      	; 0x2110 <dtoa_prf+0x66>
    210c:	23 e0       	ldi	r18, 0x03	; 3
    210e:	01 c0       	rjmp	.+2      	; 0x2112 <dtoa_prf+0x68>
    2110:	24 e0       	ldi	r18, 0x04	; 4
    2112:	21 17       	cp	r18, r17
    2114:	10 f0       	brcs	.+4      	; 0x211a <dtoa_prf+0x70>
    2116:	20 e0       	ldi	r18, 0x00	; 0
    2118:	02 c0       	rjmp	.+4      	; 0x211e <dtoa_prf+0x74>
    211a:	12 1b       	sub	r17, r18
    211c:	21 2f       	mov	r18, r17
    211e:	eb 2c       	mov	r14, r11
    2120:	b4 fe       	sbrs	r11, 4
    2122:	02 c0       	rjmp	.+4      	; 0x2128 <dtoa_prf+0x7e>
    2124:	32 2f       	mov	r19, r18
    2126:	0a c0       	rjmp	.+20     	; 0x213c <dtoa_prf+0x92>
    2128:	f6 01       	movw	r30, r12
    212a:	32 2f       	mov	r19, r18
    212c:	80 e2       	ldi	r24, 0x20	; 32
    212e:	02 c0       	rjmp	.+4      	; 0x2134 <dtoa_prf+0x8a>
    2130:	81 93       	st	Z+, r24
    2132:	31 50       	subi	r19, 0x01	; 1
    2134:	33 23       	and	r19, r19
    2136:	e1 f7       	brne	.-8      	; 0x2130 <dtoa_prf+0x86>
    2138:	c2 0e       	add	r12, r18
    213a:	d1 1c       	adc	r13, r1
    213c:	aa 23       	and	r26, r26
    213e:	19 f0       	breq	.+6      	; 0x2146 <dtoa_prf+0x9c>
    2140:	f6 01       	movw	r30, r12
    2142:	a1 93       	st	Z+, r26
    2144:	6f 01       	movw	r12, r30
    2146:	f6 01       	movw	r30, r12
    2148:	31 96       	adiw	r30, 0x01	; 1
    214a:	e2 fe       	sbrs	r14, 2
    214c:	05 c0       	rjmp	.+10     	; 0x2158 <dtoa_prf+0xae>
    214e:	9e e4       	ldi	r25, 0x4E	; 78
    2150:	d6 01       	movw	r26, r12
    2152:	9c 93       	st	X, r25
    2154:	81 e4       	ldi	r24, 0x41	; 65
    2156:	04 c0       	rjmp	.+8      	; 0x2160 <dtoa_prf+0xb6>
    2158:	9e e6       	ldi	r25, 0x6E	; 110
    215a:	d6 01       	movw	r26, r12
    215c:	9c 93       	st	X, r25
    215e:	81 e6       	ldi	r24, 0x61	; 97
    2160:	11 96       	adiw	r26, 0x01	; 1
    2162:	8c 93       	st	X, r24
    2164:	91 83       	std	Z+1, r25	; 0x01
    2166:	32 96       	adiw	r30, 0x02	; 2
    2168:	df 01       	movw	r26, r30
    216a:	83 2f       	mov	r24, r19
    216c:	90 e2       	ldi	r25, 0x20	; 32
    216e:	02 c0       	rjmp	.+4      	; 0x2174 <dtoa_prf+0xca>
    2170:	9d 93       	st	X+, r25
    2172:	81 50       	subi	r24, 0x01	; 1
    2174:	88 23       	and	r24, r24
    2176:	e1 f7       	brne	.-8      	; 0x2170 <dtoa_prf+0xc6>
    2178:	e3 0f       	add	r30, r19
    217a:	f1 1d       	adc	r31, r1
    217c:	40 c0       	rjmp	.+128    	; 0x21fe <dtoa_prf+0x154>
    217e:	e2 fe       	sbrs	r14, 2
    2180:	42 c0       	rjmp	.+132    	; 0x2206 <dtoa_prf+0x15c>
    2182:	aa 23       	and	r26, r26
    2184:	11 f4       	brne	.+4      	; 0x218a <dtoa_prf+0xe0>
    2186:	23 e0       	ldi	r18, 0x03	; 3
    2188:	01 c0       	rjmp	.+2      	; 0x218c <dtoa_prf+0xe2>
    218a:	24 e0       	ldi	r18, 0x04	; 4
    218c:	21 17       	cp	r18, r17
    218e:	10 f0       	brcs	.+4      	; 0x2194 <dtoa_prf+0xea>
    2190:	20 e0       	ldi	r18, 0x00	; 0
    2192:	02 c0       	rjmp	.+4      	; 0x2198 <dtoa_prf+0xee>
    2194:	12 1b       	sub	r17, r18
    2196:	21 2f       	mov	r18, r17
    2198:	eb 2c       	mov	r14, r11
    219a:	b4 fe       	sbrs	r11, 4
    219c:	02 c0       	rjmp	.+4      	; 0x21a2 <dtoa_prf+0xf8>
    219e:	92 2f       	mov	r25, r18
    21a0:	0a c0       	rjmp	.+20     	; 0x21b6 <dtoa_prf+0x10c>
    21a2:	f6 01       	movw	r30, r12
    21a4:	92 2f       	mov	r25, r18
    21a6:	80 e2       	ldi	r24, 0x20	; 32
    21a8:	02 c0       	rjmp	.+4      	; 0x21ae <dtoa_prf+0x104>
    21aa:	81 93       	st	Z+, r24
    21ac:	91 50       	subi	r25, 0x01	; 1
    21ae:	99 23       	and	r25, r25
    21b0:	e1 f7       	brne	.-8      	; 0x21aa <dtoa_prf+0x100>
    21b2:	c2 0e       	add	r12, r18
    21b4:	d1 1c       	adc	r13, r1
    21b6:	aa 23       	and	r26, r26
    21b8:	19 f0       	breq	.+6      	; 0x21c0 <dtoa_prf+0x116>
    21ba:	f6 01       	movw	r30, r12
    21bc:	a1 93       	st	Z+, r26
    21be:	6f 01       	movw	r12, r30
    21c0:	f6 01       	movw	r30, r12
    21c2:	31 96       	adiw	r30, 0x01	; 1
    21c4:	e2 fe       	sbrs	r14, 2
    21c6:	08 c0       	rjmp	.+16     	; 0x21d8 <dtoa_prf+0x12e>
    21c8:	89 e4       	ldi	r24, 0x49	; 73
    21ca:	d6 01       	movw	r26, r12
    21cc:	8c 93       	st	X, r24
    21ce:	8e e4       	ldi	r24, 0x4E	; 78
    21d0:	11 96       	adiw	r26, 0x01	; 1
    21d2:	8c 93       	st	X, r24
    21d4:	86 e4       	ldi	r24, 0x46	; 70
    21d6:	07 c0       	rjmp	.+14     	; 0x21e6 <dtoa_prf+0x13c>
    21d8:	89 e6       	ldi	r24, 0x69	; 105
    21da:	d6 01       	movw	r26, r12
    21dc:	8c 93       	st	X, r24
    21de:	8e e6       	ldi	r24, 0x6E	; 110
    21e0:	11 96       	adiw	r26, 0x01	; 1
    21e2:	8c 93       	st	X, r24
    21e4:	86 e6       	ldi	r24, 0x66	; 102
    21e6:	81 83       	std	Z+1, r24	; 0x01
    21e8:	32 96       	adiw	r30, 0x02	; 2
    21ea:	df 01       	movw	r26, r30
    21ec:	89 2f       	mov	r24, r25
    21ee:	20 e2       	ldi	r18, 0x20	; 32
    21f0:	02 c0       	rjmp	.+4      	; 0x21f6 <dtoa_prf+0x14c>
    21f2:	2d 93       	st	X+, r18
    21f4:	81 50       	subi	r24, 0x01	; 1
    21f6:	88 23       	and	r24, r24
    21f8:	e1 f7       	brne	.-8      	; 0x21f2 <dtoa_prf+0x148>
    21fa:	e9 0f       	add	r30, r25
    21fc:	f1 1d       	adc	r31, r1
    21fe:	10 82       	st	Z, r1
    2200:	2e ef       	ldi	r18, 0xFE	; 254
    2202:	3f ef       	ldi	r19, 0xFF	; 255
    2204:	af c0       	rjmp	.+350    	; 0x2364 <dtoa_prf+0x2ba>
    2206:	16 16       	cp	r1, r22
    2208:	17 06       	cpc	r1, r23
    220a:	1c f0       	brlt	.+6      	; 0x2212 <dtoa_prf+0x168>
    220c:	41 e0       	ldi	r20, 0x01	; 1
    220e:	50 e0       	ldi	r21, 0x00	; 0
    2210:	03 c0       	rjmp	.+6      	; 0x2218 <dtoa_prf+0x16e>
    2212:	ab 01       	movw	r20, r22
    2214:	4f 5f       	subi	r20, 0xFF	; 255
    2216:	5f 4f       	sbci	r21, 0xFF	; 255
    2218:	aa 20       	and	r10, r10
    221a:	19 f4       	brne	.+6      	; 0x2222 <dtoa_prf+0x178>
    221c:	80 e0       	ldi	r24, 0x00	; 0
    221e:	90 e0       	ldi	r25, 0x00	; 0
    2220:	03 c0       	rjmp	.+6      	; 0x2228 <dtoa_prf+0x17e>
    2222:	8a 2d       	mov	r24, r10
    2224:	90 e0       	ldi	r25, 0x00	; 0
    2226:	01 96       	adiw	r24, 0x01	; 1
    2228:	20 e0       	ldi	r18, 0x00	; 0
    222a:	30 e0       	ldi	r19, 0x00	; 0
    222c:	aa 23       	and	r26, r26
    222e:	11 f0       	breq	.+4      	; 0x2234 <dtoa_prf+0x18a>
    2230:	21 e0       	ldi	r18, 0x01	; 1
    2232:	30 e0       	ldi	r19, 0x00	; 0
    2234:	24 0f       	add	r18, r20
    2236:	35 1f       	adc	r19, r21
    2238:	28 0f       	add	r18, r24
    223a:	39 1f       	adc	r19, r25
    223c:	81 2f       	mov	r24, r17
    223e:	90 e0       	ldi	r25, 0x00	; 0
    2240:	28 17       	cp	r18, r24
    2242:	39 07       	cpc	r19, r25
    2244:	14 f0       	brlt	.+4      	; 0x224a <dtoa_prf+0x1a0>
    2246:	20 e0       	ldi	r18, 0x00	; 0
    2248:	02 c0       	rjmp	.+4      	; 0x224e <dtoa_prf+0x1a4>
    224a:	12 1b       	sub	r17, r18
    224c:	21 2f       	mov	r18, r17
    224e:	4b 2d       	mov	r20, r11
    2250:	50 e0       	ldi	r21, 0x00	; 0
    2252:	ca 01       	movw	r24, r20
    2254:	80 71       	andi	r24, 0x10	; 16
    2256:	90 70       	andi	r25, 0x00	; 0
    2258:	b4 fc       	sbrc	r11, 4
    225a:	0d c0       	rjmp	.+26     	; 0x2276 <dtoa_prf+0x1cc>
    225c:	b3 fc       	sbrc	r11, 3
    225e:	0b c0       	rjmp	.+22     	; 0x2276 <dtoa_prf+0x1cc>
    2260:	f6 01       	movw	r30, r12
    2262:	32 2f       	mov	r19, r18
    2264:	40 e2       	ldi	r20, 0x20	; 32
    2266:	02 c0       	rjmp	.+4      	; 0x226c <dtoa_prf+0x1c2>
    2268:	41 93       	st	Z+, r20
    226a:	31 50       	subi	r19, 0x01	; 1
    226c:	33 23       	and	r19, r19
    226e:	e1 f7       	brne	.-8      	; 0x2268 <dtoa_prf+0x1be>
    2270:	c2 0e       	add	r12, r18
    2272:	d1 1c       	adc	r13, r1
    2274:	01 c0       	rjmp	.+2      	; 0x2278 <dtoa_prf+0x1ce>
    2276:	32 2f       	mov	r19, r18
    2278:	aa 23       	and	r26, r26
    227a:	19 f0       	breq	.+6      	; 0x2282 <dtoa_prf+0x1d8>
    227c:	f6 01       	movw	r30, r12
    227e:	a1 93       	st	Z+, r26
    2280:	6f 01       	movw	r12, r30
    2282:	89 2b       	or	r24, r25
    2284:	11 f0       	breq	.+4      	; 0x228a <dtoa_prf+0x1e0>
    2286:	13 2f       	mov	r17, r19
    2288:	0a c0       	rjmp	.+20     	; 0x229e <dtoa_prf+0x1f4>
    228a:	f6 01       	movw	r30, r12
    228c:	13 2f       	mov	r17, r19
    228e:	80 e3       	ldi	r24, 0x30	; 48
    2290:	02 c0       	rjmp	.+4      	; 0x2296 <dtoa_prf+0x1ec>
    2292:	81 93       	st	Z+, r24
    2294:	11 50       	subi	r17, 0x01	; 1
    2296:	11 23       	and	r17, r17
    2298:	e1 f7       	brne	.-8      	; 0x2292 <dtoa_prf+0x1e8>
    229a:	c3 0e       	add	r12, r19
    229c:	d1 1c       	adc	r13, r1
    229e:	09 2d       	mov	r16, r9
    22a0:	06 0f       	add	r16, r22
    22a2:	ba 80       	ldd	r11, Y+2	; 0x02
    22a4:	90 e1       	ldi	r25, 0x10	; 16
    22a6:	89 2e       	mov	r8, r25
    22a8:	91 2c       	mov	r9, r1
    22aa:	8e 20       	and	r8, r14
    22ac:	9f 20       	and	r9, r15
    22ae:	e4 fe       	sbrs	r14, 4
    22b0:	04 c0       	rjmp	.+8      	; 0x22ba <dtoa_prf+0x210>
    22b2:	f1 e3       	ldi	r31, 0x31	; 49
    22b4:	bf 16       	cp	r11, r31
    22b6:	09 f4       	brne	.+2      	; 0x22ba <dtoa_prf+0x210>
    22b8:	01 50       	subi	r16, 0x01	; 1
    22ba:	10 16       	cp	r1, r16
    22bc:	14 f0       	brlt	.+4      	; 0x22c2 <dtoa_prf+0x218>
    22be:	01 e0       	ldi	r16, 0x01	; 1
    22c0:	03 c0       	rjmp	.+6      	; 0x22c8 <dtoa_prf+0x21e>
    22c2:	09 30       	cpi	r16, 0x09	; 9
    22c4:	08 f0       	brcs	.+2      	; 0x22c8 <dtoa_prf+0x21e>
    22c6:	08 e0       	ldi	r16, 0x08	; 8
    22c8:	9b 01       	movw	r18, r22
    22ca:	77 ff       	sbrs	r23, 7
    22cc:	02 c0       	rjmp	.+4      	; 0x22d2 <dtoa_prf+0x228>
    22ce:	20 e0       	ldi	r18, 0x00	; 0
    22d0:	30 e0       	ldi	r19, 0x00	; 0
    22d2:	cb 01       	movw	r24, r22
    22d4:	01 96       	adiw	r24, 0x01	; 1
    22d6:	82 1b       	sub	r24, r18
    22d8:	93 0b       	sbc	r25, r19
    22da:	fe 01       	movw	r30, r28
    22dc:	31 96       	adiw	r30, 0x01	; 1
    22de:	e8 0f       	add	r30, r24
    22e0:	f9 1f       	adc	r31, r25
    22e2:	8e e2       	ldi	r24, 0x2E	; 46
    22e4:	f8 2e       	mov	r15, r24
    22e6:	3b 01       	movw	r6, r22
    22e8:	60 1a       	sub	r6, r16
    22ea:	71 08       	sbc	r7, r1
    22ec:	8a 2d       	mov	r24, r10
    22ee:	90 e0       	ldi	r25, 0x00	; 0
    22f0:	44 27       	eor	r20, r20
    22f2:	55 27       	eor	r21, r21
    22f4:	48 1b       	sub	r20, r24
    22f6:	59 0b       	sbc	r21, r25
    22f8:	8f ef       	ldi	r24, 0xFF	; 255
    22fa:	2f 3f       	cpi	r18, 0xFF	; 255
    22fc:	38 07       	cpc	r19, r24
    22fe:	19 f4       	brne	.+6      	; 0x2306 <dtoa_prf+0x25c>
    2300:	d6 01       	movw	r26, r12
    2302:	fd 92       	st	X+, r15
    2304:	6d 01       	movw	r12, r26
    2306:	62 17       	cp	r22, r18
    2308:	73 07       	cpc	r23, r19
    230a:	2c f0       	brlt	.+10     	; 0x2316 <dtoa_prf+0x26c>
    230c:	62 16       	cp	r6, r18
    230e:	73 06       	cpc	r7, r19
    2310:	14 f4       	brge	.+4      	; 0x2316 <dtoa_prf+0x26c>
    2312:	80 81       	ld	r24, Z
    2314:	01 c0       	rjmp	.+2      	; 0x2318 <dtoa_prf+0x26e>
    2316:	80 e3       	ldi	r24, 0x30	; 48
    2318:	21 50       	subi	r18, 0x01	; 1
    231a:	30 40       	sbci	r19, 0x00	; 0
    231c:	31 96       	adiw	r30, 0x01	; 1
    231e:	24 17       	cp	r18, r20
    2320:	35 07       	cpc	r19, r21
    2322:	24 f0       	brlt	.+8      	; 0x232c <dtoa_prf+0x282>
    2324:	d6 01       	movw	r26, r12
    2326:	8d 93       	st	X+, r24
    2328:	6d 01       	movw	r12, r26
    232a:	e6 cf       	rjmp	.-52     	; 0x22f8 <dtoa_prf+0x24e>
    232c:	26 17       	cp	r18, r22
    232e:	37 07       	cpc	r19, r23
    2330:	49 f4       	brne	.+18     	; 0x2344 <dtoa_prf+0x29a>
    2332:	b5 e3       	ldi	r27, 0x35	; 53
    2334:	bb 15       	cp	r27, r11
    2336:	28 f0       	brcs	.+10     	; 0x2342 <dtoa_prf+0x298>
    2338:	bb 16       	cp	r11, r27
    233a:	21 f4       	brne	.+8      	; 0x2344 <dtoa_prf+0x29a>
    233c:	81 14       	cp	r8, r1
    233e:	91 04       	cpc	r9, r1
    2340:	09 f4       	brne	.+2      	; 0x2344 <dtoa_prf+0x29a>
    2342:	81 e3       	ldi	r24, 0x31	; 49
    2344:	f6 01       	movw	r30, r12
    2346:	81 93       	st	Z+, r24
    2348:	d6 01       	movw	r26, r12
    234a:	81 2f       	mov	r24, r17
    234c:	90 e2       	ldi	r25, 0x20	; 32
    234e:	02 c0       	rjmp	.+4      	; 0x2354 <dtoa_prf+0x2aa>
    2350:	9c 93       	st	X, r25
    2352:	81 50       	subi	r24, 0x01	; 1
    2354:	11 96       	adiw	r26, 0x01	; 1
    2356:	88 23       	and	r24, r24
    2358:	d9 f7       	brne	.-10     	; 0x2350 <dtoa_prf+0x2a6>
    235a:	e1 0f       	add	r30, r17
    235c:	f1 1d       	adc	r31, r1
    235e:	10 82       	st	Z, r1
    2360:	20 e0       	ldi	r18, 0x00	; 0
    2362:	30 e0       	ldi	r19, 0x00	; 0
    2364:	c9 01       	movw	r24, r18
    2366:	29 96       	adiw	r28, 0x09	; 9
    2368:	ee e0       	ldi	r30, 0x0E	; 14
    236a:	0c 94 ed 0f 	jmp	0x1fda	; 0x1fda <__epilogue_restores__+0x8>

0000236e <__ftoa_engine>:
    236e:	28 30       	cpi	r18, 0x08	; 8
    2370:	08 f0       	brcs	.+2      	; 0x2374 <__ftoa_engine+0x6>
    2372:	27 e0       	ldi	r18, 0x07	; 7
    2374:	33 27       	eor	r19, r19
    2376:	da 01       	movw	r26, r20
    2378:	99 0f       	add	r25, r25
    237a:	31 1d       	adc	r19, r1
    237c:	87 fd       	sbrc	r24, 7
    237e:	91 60       	ori	r25, 0x01	; 1
    2380:	00 96       	adiw	r24, 0x00	; 0
    2382:	61 05       	cpc	r22, r1
    2384:	71 05       	cpc	r23, r1
    2386:	39 f4       	brne	.+14     	; 0x2396 <__ftoa_engine+0x28>
    2388:	32 60       	ori	r19, 0x02	; 2
    238a:	2e 5f       	subi	r18, 0xFE	; 254
    238c:	3d 93       	st	X+, r19
    238e:	30 e3       	ldi	r19, 0x30	; 48
    2390:	2a 95       	dec	r18
    2392:	e1 f7       	brne	.-8      	; 0x238c <__ftoa_engine+0x1e>
    2394:	08 95       	ret
    2396:	9f 3f       	cpi	r25, 0xFF	; 255
    2398:	30 f0       	brcs	.+12     	; 0x23a6 <__ftoa_engine+0x38>
    239a:	80 38       	cpi	r24, 0x80	; 128
    239c:	71 05       	cpc	r23, r1
    239e:	61 05       	cpc	r22, r1
    23a0:	09 f0       	breq	.+2      	; 0x23a4 <__ftoa_engine+0x36>
    23a2:	3c 5f       	subi	r19, 0xFC	; 252
    23a4:	3c 5f       	subi	r19, 0xFC	; 252
    23a6:	3d 93       	st	X+, r19
    23a8:	91 30       	cpi	r25, 0x01	; 1
    23aa:	08 f0       	brcs	.+2      	; 0x23ae <__ftoa_engine+0x40>
    23ac:	80 68       	ori	r24, 0x80	; 128
    23ae:	91 1d       	adc	r25, r1
    23b0:	df 93       	push	r29
    23b2:	cf 93       	push	r28
    23b4:	1f 93       	push	r17
    23b6:	0f 93       	push	r16
    23b8:	ff 92       	push	r15
    23ba:	ef 92       	push	r14
    23bc:	19 2f       	mov	r17, r25
    23be:	98 7f       	andi	r25, 0xF8	; 248
    23c0:	96 95       	lsr	r25
    23c2:	e9 2f       	mov	r30, r25
    23c4:	96 95       	lsr	r25
    23c6:	96 95       	lsr	r25
    23c8:	e9 0f       	add	r30, r25
    23ca:	ff 27       	eor	r31, r31
    23cc:	ed 54       	subi	r30, 0x4D	; 77
    23ce:	fd 4f       	sbci	r31, 0xFD	; 253
    23d0:	99 27       	eor	r25, r25
    23d2:	33 27       	eor	r19, r19
    23d4:	ee 24       	eor	r14, r14
    23d6:	ff 24       	eor	r15, r15
    23d8:	a7 01       	movw	r20, r14
    23da:	e7 01       	movw	r28, r14
    23dc:	05 90       	lpm	r0, Z+
    23de:	08 94       	sec
    23e0:	07 94       	ror	r0
    23e2:	28 f4       	brcc	.+10     	; 0x23ee <__ftoa_engine+0x80>
    23e4:	36 0f       	add	r19, r22
    23e6:	e7 1e       	adc	r14, r23
    23e8:	f8 1e       	adc	r15, r24
    23ea:	49 1f       	adc	r20, r25
    23ec:	51 1d       	adc	r21, r1
    23ee:	66 0f       	add	r22, r22
    23f0:	77 1f       	adc	r23, r23
    23f2:	88 1f       	adc	r24, r24
    23f4:	99 1f       	adc	r25, r25
    23f6:	06 94       	lsr	r0
    23f8:	a1 f7       	brne	.-24     	; 0x23e2 <__ftoa_engine+0x74>
    23fa:	05 90       	lpm	r0, Z+
    23fc:	07 94       	ror	r0
    23fe:	28 f4       	brcc	.+10     	; 0x240a <__ftoa_engine+0x9c>
    2400:	e7 0e       	add	r14, r23
    2402:	f8 1e       	adc	r15, r24
    2404:	49 1f       	adc	r20, r25
    2406:	56 1f       	adc	r21, r22
    2408:	c1 1d       	adc	r28, r1
    240a:	77 0f       	add	r23, r23
    240c:	88 1f       	adc	r24, r24
    240e:	99 1f       	adc	r25, r25
    2410:	66 1f       	adc	r22, r22
    2412:	06 94       	lsr	r0
    2414:	a1 f7       	brne	.-24     	; 0x23fe <__ftoa_engine+0x90>
    2416:	05 90       	lpm	r0, Z+
    2418:	07 94       	ror	r0
    241a:	28 f4       	brcc	.+10     	; 0x2426 <__ftoa_engine+0xb8>
    241c:	f8 0e       	add	r15, r24
    241e:	49 1f       	adc	r20, r25
    2420:	56 1f       	adc	r21, r22
    2422:	c7 1f       	adc	r28, r23
    2424:	d1 1d       	adc	r29, r1
    2426:	88 0f       	add	r24, r24
    2428:	99 1f       	adc	r25, r25
    242a:	66 1f       	adc	r22, r22
    242c:	77 1f       	adc	r23, r23
    242e:	06 94       	lsr	r0
    2430:	a1 f7       	brne	.-24     	; 0x241a <__ftoa_engine+0xac>
    2432:	05 90       	lpm	r0, Z+
    2434:	07 94       	ror	r0
    2436:	20 f4       	brcc	.+8      	; 0x2440 <__ftoa_engine+0xd2>
    2438:	49 0f       	add	r20, r25
    243a:	56 1f       	adc	r21, r22
    243c:	c7 1f       	adc	r28, r23
    243e:	d8 1f       	adc	r29, r24
    2440:	99 0f       	add	r25, r25
    2442:	66 1f       	adc	r22, r22
    2444:	77 1f       	adc	r23, r23
    2446:	88 1f       	adc	r24, r24
    2448:	06 94       	lsr	r0
    244a:	a9 f7       	brne	.-22     	; 0x2436 <__ftoa_engine+0xc8>
    244c:	84 91       	lpm	r24, Z+
    244e:	10 95       	com	r17
    2450:	17 70       	andi	r17, 0x07	; 7
    2452:	41 f0       	breq	.+16     	; 0x2464 <__ftoa_engine+0xf6>
    2454:	d6 95       	lsr	r29
    2456:	c7 95       	ror	r28
    2458:	57 95       	ror	r21
    245a:	47 95       	ror	r20
    245c:	f7 94       	ror	r15
    245e:	e7 94       	ror	r14
    2460:	1a 95       	dec	r17
    2462:	c1 f7       	brne	.-16     	; 0x2454 <__ftoa_engine+0xe6>
    2464:	e9 e5       	ldi	r30, 0x59	; 89
    2466:	f2 e0       	ldi	r31, 0x02	; 2
    2468:	68 94       	set
    246a:	15 90       	lpm	r1, Z+
    246c:	15 91       	lpm	r17, Z+
    246e:	35 91       	lpm	r19, Z+
    2470:	65 91       	lpm	r22, Z+
    2472:	95 91       	lpm	r25, Z+
    2474:	05 90       	lpm	r0, Z+
    2476:	7f e2       	ldi	r23, 0x2F	; 47
    2478:	73 95       	inc	r23
    247a:	e1 18       	sub	r14, r1
    247c:	f1 0a       	sbc	r15, r17
    247e:	43 0b       	sbc	r20, r19
    2480:	56 0b       	sbc	r21, r22
    2482:	c9 0b       	sbc	r28, r25
    2484:	d0 09       	sbc	r29, r0
    2486:	c0 f7       	brcc	.-16     	; 0x2478 <__ftoa_engine+0x10a>
    2488:	e1 0c       	add	r14, r1
    248a:	f1 1e       	adc	r15, r17
    248c:	43 1f       	adc	r20, r19
    248e:	56 1f       	adc	r21, r22
    2490:	c9 1f       	adc	r28, r25
    2492:	d0 1d       	adc	r29, r0
    2494:	7e f4       	brtc	.+30     	; 0x24b4 <__ftoa_engine+0x146>
    2496:	70 33       	cpi	r23, 0x30	; 48
    2498:	11 f4       	brne	.+4      	; 0x249e <__ftoa_engine+0x130>
    249a:	8a 95       	dec	r24
    249c:	e6 cf       	rjmp	.-52     	; 0x246a <__ftoa_engine+0xfc>
    249e:	e8 94       	clt
    24a0:	01 50       	subi	r16, 0x01	; 1
    24a2:	30 f0       	brcs	.+12     	; 0x24b0 <__ftoa_engine+0x142>
    24a4:	08 0f       	add	r16, r24
    24a6:	0a f4       	brpl	.+2      	; 0x24aa <__ftoa_engine+0x13c>
    24a8:	00 27       	eor	r16, r16
    24aa:	02 17       	cp	r16, r18
    24ac:	08 f4       	brcc	.+2      	; 0x24b0 <__ftoa_engine+0x142>
    24ae:	20 2f       	mov	r18, r16
    24b0:	23 95       	inc	r18
    24b2:	02 2f       	mov	r16, r18
    24b4:	7a 33       	cpi	r23, 0x3A	; 58
    24b6:	28 f0       	brcs	.+10     	; 0x24c2 <__ftoa_engine+0x154>
    24b8:	79 e3       	ldi	r23, 0x39	; 57
    24ba:	7d 93       	st	X+, r23
    24bc:	2a 95       	dec	r18
    24be:	e9 f7       	brne	.-6      	; 0x24ba <__ftoa_engine+0x14c>
    24c0:	10 c0       	rjmp	.+32     	; 0x24e2 <__ftoa_engine+0x174>
    24c2:	7d 93       	st	X+, r23
    24c4:	2a 95       	dec	r18
    24c6:	89 f6       	brne	.-94     	; 0x246a <__ftoa_engine+0xfc>
    24c8:	06 94       	lsr	r0
    24ca:	97 95       	ror	r25
    24cc:	67 95       	ror	r22
    24ce:	37 95       	ror	r19
    24d0:	17 95       	ror	r17
    24d2:	17 94       	ror	r1
    24d4:	e1 18       	sub	r14, r1
    24d6:	f1 0a       	sbc	r15, r17
    24d8:	43 0b       	sbc	r20, r19
    24da:	56 0b       	sbc	r21, r22
    24dc:	c9 0b       	sbc	r28, r25
    24de:	d0 09       	sbc	r29, r0
    24e0:	98 f0       	brcs	.+38     	; 0x2508 <__ftoa_engine+0x19a>
    24e2:	23 95       	inc	r18
    24e4:	7e 91       	ld	r23, -X
    24e6:	73 95       	inc	r23
    24e8:	7a 33       	cpi	r23, 0x3A	; 58
    24ea:	08 f0       	brcs	.+2      	; 0x24ee <__ftoa_engine+0x180>
    24ec:	70 e3       	ldi	r23, 0x30	; 48
    24ee:	7c 93       	st	X, r23
    24f0:	20 13       	cpse	r18, r16
    24f2:	b8 f7       	brcc	.-18     	; 0x24e2 <__ftoa_engine+0x174>
    24f4:	7e 91       	ld	r23, -X
    24f6:	70 61       	ori	r23, 0x10	; 16
    24f8:	7d 93       	st	X+, r23
    24fa:	30 f0       	brcs	.+12     	; 0x2508 <__ftoa_engine+0x19a>
    24fc:	83 95       	inc	r24
    24fe:	71 e3       	ldi	r23, 0x31	; 49
    2500:	7d 93       	st	X+, r23
    2502:	70 e3       	ldi	r23, 0x30	; 48
    2504:	2a 95       	dec	r18
    2506:	e1 f7       	brne	.-8      	; 0x2500 <__ftoa_engine+0x192>
    2508:	11 24       	eor	r1, r1
    250a:	ef 90       	pop	r14
    250c:	ff 90       	pop	r15
    250e:	0f 91       	pop	r16
    2510:	1f 91       	pop	r17
    2512:	cf 91       	pop	r28
    2514:	df 91       	pop	r29
    2516:	99 27       	eor	r25, r25
    2518:	87 fd       	sbrc	r24, 7
    251a:	90 95       	com	r25
    251c:	08 95       	ret

0000251e <_exit>:
    251e:	f8 94       	cli

00002520 <__stop_program>:
    2520:	ff cf       	rjmp	.-2      	; 0x2520 <__stop_program>
